ARM GAS  /tmp/ccHYg4Z6.s 			page 1


   1              		.cpu cortex-m7
   2              		.arch armv7e-m
   3              		.fpu fpv5-d16
   4              		.eabi_attribute 28, 1
   5              		.eabi_attribute 20, 1
   6              		.eabi_attribute 21, 1
   7              		.eabi_attribute 23, 3
   8              		.eabi_attribute 24, 1
   9              		.eabi_attribute 25, 1
  10              		.eabi_attribute 26, 1
  11              		.eabi_attribute 30, 1
  12              		.eabi_attribute 34, 1
  13              		.eabi_attribute 18, 4
  14              		.file	"usart.c"
  15              		.text
  16              	.Ltext0:
  17              		.cfi_sections	.debug_frame
  18              		.file 1 "Core/Src/usart.c"
  19              		.section	.text.MX_USART3_UART_Init,"ax",%progbits
  20              		.align	1
  21              		.global	MX_USART3_UART_Init
  22              		.syntax unified
  23              		.thumb
  24              		.thumb_func
  26              	MX_USART3_UART_Init:
  27              	.LFB144:
   1:Core/Src/usart.c **** /* USER CODE BEGIN Header */
   2:Core/Src/usart.c **** /**
   3:Core/Src/usart.c ****   ******************************************************************************
   4:Core/Src/usart.c ****   * @file    usart.c
   5:Core/Src/usart.c ****   * @brief   This file provides code for the configuration
   6:Core/Src/usart.c ****   *          of the USART instances.
   7:Core/Src/usart.c ****   ******************************************************************************
   8:Core/Src/usart.c ****   * @attention
   9:Core/Src/usart.c ****   *
  10:Core/Src/usart.c ****   * Copyright (c) 2023 STMicroelectronics.
  11:Core/Src/usart.c ****   * All rights reserved.
  12:Core/Src/usart.c ****   *
  13:Core/Src/usart.c ****   * This software is licensed under terms that can be found in the LICENSE file
  14:Core/Src/usart.c ****   * in the root directory of this software component.
  15:Core/Src/usart.c ****   * If no LICENSE file comes with this software, it is provided AS-IS.
  16:Core/Src/usart.c ****   *
  17:Core/Src/usart.c ****   ******************************************************************************
  18:Core/Src/usart.c ****   */
  19:Core/Src/usart.c **** /* USER CODE END Header */
  20:Core/Src/usart.c **** /* Includes ------------------------------------------------------------------*/
  21:Core/Src/usart.c **** #include "usart.h"
  22:Core/Src/usart.c **** 
  23:Core/Src/usart.c **** /* USER CODE BEGIN 0 */
  24:Core/Src/usart.c **** 
  25:Core/Src/usart.c **** /* USER CODE END 0 */
  26:Core/Src/usart.c **** 
  27:Core/Src/usart.c **** UART_HandleTypeDef huart3;
  28:Core/Src/usart.c **** 
  29:Core/Src/usart.c **** /* USART3 init function */
  30:Core/Src/usart.c **** 
  31:Core/Src/usart.c **** void MX_USART3_UART_Init(void)
ARM GAS  /tmp/ccHYg4Z6.s 			page 2


  32:Core/Src/usart.c **** {
  28              		.loc 1 32 1 view -0
  29              		.cfi_startproc
  30              		@ args = 0, pretend = 0, frame = 0
  31              		@ frame_needed = 0, uses_anonymous_args = 0
  32 0000 08B5     		push	{r3, lr}
  33              	.LCFI0:
  34              		.cfi_def_cfa_offset 8
  35              		.cfi_offset 3, -8
  36              		.cfi_offset 14, -4
  33:Core/Src/usart.c **** 
  34:Core/Src/usart.c ****   /* USER CODE BEGIN USART3_Init 0 */
  35:Core/Src/usart.c **** 
  36:Core/Src/usart.c ****   /* USER CODE END USART3_Init 0 */
  37:Core/Src/usart.c **** 
  38:Core/Src/usart.c ****   /* USER CODE BEGIN USART3_Init 1 */
  39:Core/Src/usart.c **** 
  40:Core/Src/usart.c ****   /* USER CODE END USART3_Init 1 */
  41:Core/Src/usart.c ****   huart3.Instance = USART3;
  37              		.loc 1 41 3 view .LVU1
  38              		.loc 1 41 19 is_stmt 0 view .LVU2
  39 0002 1748     		ldr	r0, .L11
  40 0004 174B     		ldr	r3, .L11+4
  41 0006 0360     		str	r3, [r0]
  42:Core/Src/usart.c ****   huart3.Init.BaudRate = 115200;
  42              		.loc 1 42 3 is_stmt 1 view .LVU3
  43              		.loc 1 42 24 is_stmt 0 view .LVU4
  44 0008 4FF4E133 		mov	r3, #115200
  45 000c 4360     		str	r3, [r0, #4]
  43:Core/Src/usart.c ****   huart3.Init.WordLength = UART_WORDLENGTH_8B;
  46              		.loc 1 43 3 is_stmt 1 view .LVU5
  47              		.loc 1 43 26 is_stmt 0 view .LVU6
  48 000e 0023     		movs	r3, #0
  49 0010 8360     		str	r3, [r0, #8]
  44:Core/Src/usart.c ****   huart3.Init.StopBits = UART_STOPBITS_1;
  50              		.loc 1 44 3 is_stmt 1 view .LVU7
  51              		.loc 1 44 24 is_stmt 0 view .LVU8
  52 0012 C360     		str	r3, [r0, #12]
  45:Core/Src/usart.c ****   huart3.Init.Parity = UART_PARITY_NONE;
  53              		.loc 1 45 3 is_stmt 1 view .LVU9
  54              		.loc 1 45 22 is_stmt 0 view .LVU10
  55 0014 0361     		str	r3, [r0, #16]
  46:Core/Src/usart.c ****   huart3.Init.Mode = UART_MODE_TX_RX;
  56              		.loc 1 46 3 is_stmt 1 view .LVU11
  57              		.loc 1 46 20 is_stmt 0 view .LVU12
  58 0016 0C22     		movs	r2, #12
  59 0018 4261     		str	r2, [r0, #20]
  47:Core/Src/usart.c ****   huart3.Init.HwFlowCtl = UART_HWCONTROL_NONE;
  60              		.loc 1 47 3 is_stmt 1 view .LVU13
  61              		.loc 1 47 25 is_stmt 0 view .LVU14
  62 001a 8361     		str	r3, [r0, #24]
  48:Core/Src/usart.c ****   huart3.Init.OverSampling = UART_OVERSAMPLING_16;
  63              		.loc 1 48 3 is_stmt 1 view .LVU15
  64              		.loc 1 48 28 is_stmt 0 view .LVU16
  65 001c C361     		str	r3, [r0, #28]
  49:Core/Src/usart.c ****   huart3.Init.OneBitSampling = UART_ONE_BIT_SAMPLE_DISABLE;
  66              		.loc 1 49 3 is_stmt 1 view .LVU17
ARM GAS  /tmp/ccHYg4Z6.s 			page 3


  67              		.loc 1 49 30 is_stmt 0 view .LVU18
  68 001e 0362     		str	r3, [r0, #32]
  50:Core/Src/usart.c ****   huart3.Init.ClockPrescaler = UART_PRESCALER_DIV1;
  69              		.loc 1 50 3 is_stmt 1 view .LVU19
  70              		.loc 1 50 30 is_stmt 0 view .LVU20
  71 0020 4362     		str	r3, [r0, #36]
  51:Core/Src/usart.c ****   huart3.AdvancedInit.AdvFeatureInit = UART_ADVFEATURE_NO_INIT;
  72              		.loc 1 51 3 is_stmt 1 view .LVU21
  73              		.loc 1 51 38 is_stmt 0 view .LVU22
  74 0022 8362     		str	r3, [r0, #40]
  52:Core/Src/usart.c ****   if (HAL_UART_Init(&huart3) != HAL_OK)
  75              		.loc 1 52 3 is_stmt 1 view .LVU23
  76              		.loc 1 52 7 is_stmt 0 view .LVU24
  77 0024 FFF7FEFF 		bl	HAL_UART_Init
  78              	.LVL0:
  79              		.loc 1 52 6 view .LVU25
  80 0028 70B9     		cbnz	r0, .L7
  81              	.L2:
  53:Core/Src/usart.c ****   {
  54:Core/Src/usart.c ****     Error_Handler();
  55:Core/Src/usart.c ****   }
  56:Core/Src/usart.c ****   if (HAL_UARTEx_SetTxFifoThreshold(&huart3, UART_TXFIFO_THRESHOLD_1_8) != HAL_OK)
  82              		.loc 1 56 3 is_stmt 1 view .LVU26
  83              		.loc 1 56 7 is_stmt 0 view .LVU27
  84 002a 0021     		movs	r1, #0
  85 002c 0C48     		ldr	r0, .L11
  86 002e FFF7FEFF 		bl	HAL_UARTEx_SetTxFifoThreshold
  87              	.LVL1:
  88              		.loc 1 56 6 view .LVU28
  89 0032 60B9     		cbnz	r0, .L8
  90              	.L3:
  57:Core/Src/usart.c ****   {
  58:Core/Src/usart.c ****     Error_Handler();
  59:Core/Src/usart.c ****   }
  60:Core/Src/usart.c ****   if (HAL_UARTEx_SetRxFifoThreshold(&huart3, UART_RXFIFO_THRESHOLD_1_8) != HAL_OK)
  91              		.loc 1 60 3 is_stmt 1 view .LVU29
  92              		.loc 1 60 7 is_stmt 0 view .LVU30
  93 0034 0021     		movs	r1, #0
  94 0036 0A48     		ldr	r0, .L11
  95 0038 FFF7FEFF 		bl	HAL_UARTEx_SetRxFifoThreshold
  96              	.LVL2:
  97              		.loc 1 60 6 view .LVU31
  98 003c 50B9     		cbnz	r0, .L9
  99              	.L4:
  61:Core/Src/usart.c ****   {
  62:Core/Src/usart.c ****     Error_Handler();
  63:Core/Src/usart.c ****   }
  64:Core/Src/usart.c ****   if (HAL_UARTEx_DisableFifoMode(&huart3) != HAL_OK)
 100              		.loc 1 64 3 is_stmt 1 view .LVU32
 101              		.loc 1 64 7 is_stmt 0 view .LVU33
 102 003e 0848     		ldr	r0, .L11
 103 0040 FFF7FEFF 		bl	HAL_UARTEx_DisableFifoMode
 104              	.LVL3:
 105              		.loc 1 64 6 view .LVU34
 106 0044 48B9     		cbnz	r0, .L10
 107              	.L1:
  65:Core/Src/usart.c ****   {
ARM GAS  /tmp/ccHYg4Z6.s 			page 4


  66:Core/Src/usart.c ****     Error_Handler();
  67:Core/Src/usart.c ****   }
  68:Core/Src/usart.c ****   /* USER CODE BEGIN USART3_Init 2 */
  69:Core/Src/usart.c **** 
  70:Core/Src/usart.c ****   /* USER CODE END USART3_Init 2 */
  71:Core/Src/usart.c **** 
  72:Core/Src/usart.c **** }
 108              		.loc 1 72 1 view .LVU35
 109 0046 08BD     		pop	{r3, pc}
 110              	.L7:
  54:Core/Src/usart.c ****   }
 111              		.loc 1 54 5 is_stmt 1 view .LVU36
 112 0048 FFF7FEFF 		bl	Error_Handler
 113              	.LVL4:
 114 004c EDE7     		b	.L2
 115              	.L8:
  58:Core/Src/usart.c ****   }
 116              		.loc 1 58 5 view .LVU37
 117 004e FFF7FEFF 		bl	Error_Handler
 118              	.LVL5:
 119 0052 EFE7     		b	.L3
 120              	.L9:
  62:Core/Src/usart.c ****   }
 121              		.loc 1 62 5 view .LVU38
 122 0054 FFF7FEFF 		bl	Error_Handler
 123              	.LVL6:
 124 0058 F1E7     		b	.L4
 125              	.L10:
  66:Core/Src/usart.c ****   }
 126              		.loc 1 66 5 view .LVU39
 127 005a FFF7FEFF 		bl	Error_Handler
 128              	.LVL7:
 129              		.loc 1 72 1 is_stmt 0 view .LVU40
 130 005e F2E7     		b	.L1
 131              	.L12:
 132              		.align	2
 133              	.L11:
 134 0060 00000000 		.word	huart3
 135 0064 00480040 		.word	1073760256
 136              		.cfi_endproc
 137              	.LFE144:
 139              		.section	.text.HAL_UART_MspInit,"ax",%progbits
 140              		.align	1
 141              		.global	HAL_UART_MspInit
 142              		.syntax unified
 143              		.thumb
 144              		.thumb_func
 146              	HAL_UART_MspInit:
 147              	.LVL8:
 148              	.LFB145:
  73:Core/Src/usart.c **** 
  74:Core/Src/usart.c **** void HAL_UART_MspInit(UART_HandleTypeDef* uartHandle)
  75:Core/Src/usart.c **** {
 149              		.loc 1 75 1 is_stmt 1 view -0
 150              		.cfi_startproc
 151              		@ args = 0, pretend = 0, frame = 224
 152              		@ frame_needed = 0, uses_anonymous_args = 0
ARM GAS  /tmp/ccHYg4Z6.s 			page 5


 153              		.loc 1 75 1 is_stmt 0 view .LVU42
 154 0000 10B5     		push	{r4, lr}
 155              	.LCFI1:
 156              		.cfi_def_cfa_offset 8
 157              		.cfi_offset 4, -8
 158              		.cfi_offset 14, -4
 159 0002 B8B0     		sub	sp, sp, #224
 160              	.LCFI2:
 161              		.cfi_def_cfa_offset 232
 162 0004 0446     		mov	r4, r0
  76:Core/Src/usart.c **** 
  77:Core/Src/usart.c ****   GPIO_InitTypeDef GPIO_InitStruct = {0};
 163              		.loc 1 77 3 is_stmt 1 view .LVU43
 164              		.loc 1 77 20 is_stmt 0 view .LVU44
 165 0006 0021     		movs	r1, #0
 166 0008 3391     		str	r1, [sp, #204]
 167 000a 3491     		str	r1, [sp, #208]
 168 000c 3591     		str	r1, [sp, #212]
 169 000e 3691     		str	r1, [sp, #216]
 170 0010 3791     		str	r1, [sp, #220]
  78:Core/Src/usart.c ****   RCC_PeriphCLKInitTypeDef PeriphClkInitStruct = {0};
 171              		.loc 1 78 3 is_stmt 1 view .LVU45
 172              		.loc 1 78 28 is_stmt 0 view .LVU46
 173 0012 C022     		movs	r2, #192
 174 0014 02A8     		add	r0, sp, #8
 175              	.LVL9:
 176              		.loc 1 78 28 view .LVU47
 177 0016 FFF7FEFF 		bl	memset
 178              	.LVL10:
  79:Core/Src/usart.c ****   if(uartHandle->Instance==USART3)
 179              		.loc 1 79 3 is_stmt 1 view .LVU48
 180              		.loc 1 79 16 is_stmt 0 view .LVU49
 181 001a 2268     		ldr	r2, [r4]
 182              		.loc 1 79 5 view .LVU50
 183 001c 1B4B     		ldr	r3, .L19
 184 001e 9A42     		cmp	r2, r3
 185 0020 01D0     		beq	.L17
 186              	.L13:
  80:Core/Src/usart.c ****   {
  81:Core/Src/usart.c ****   /* USER CODE BEGIN USART3_MspInit 0 */
  82:Core/Src/usart.c **** 
  83:Core/Src/usart.c ****   /* USER CODE END USART3_MspInit 0 */
  84:Core/Src/usart.c **** 
  85:Core/Src/usart.c ****   /** Initializes the peripherals clock
  86:Core/Src/usart.c ****   */
  87:Core/Src/usart.c ****     PeriphClkInitStruct.PeriphClockSelection = RCC_PERIPHCLK_USART3;
  88:Core/Src/usart.c ****     PeriphClkInitStruct.Usart234578ClockSelection = RCC_USART234578CLKSOURCE_D2PCLK1;
  89:Core/Src/usart.c ****     if (HAL_RCCEx_PeriphCLKConfig(&PeriphClkInitStruct) != HAL_OK)
  90:Core/Src/usart.c ****     {
  91:Core/Src/usart.c ****       Error_Handler();
  92:Core/Src/usart.c ****     }
  93:Core/Src/usart.c **** 
  94:Core/Src/usart.c ****     /* USART3 clock enable */
  95:Core/Src/usart.c ****     __HAL_RCC_USART3_CLK_ENABLE();
  96:Core/Src/usart.c **** 
  97:Core/Src/usart.c ****     __HAL_RCC_GPIOD_CLK_ENABLE();
  98:Core/Src/usart.c ****     /**USART3 GPIO Configuration
ARM GAS  /tmp/ccHYg4Z6.s 			page 6


  99:Core/Src/usart.c ****     PD8     ------> USART3_TX
 100:Core/Src/usart.c ****     PD9     ------> USART3_RX
 101:Core/Src/usart.c ****     */
 102:Core/Src/usart.c ****     GPIO_InitStruct.Pin = STLINK_RX_Pin|STLINK_TX_Pin;
 103:Core/Src/usart.c ****     GPIO_InitStruct.Mode = GPIO_MODE_AF_PP;
 104:Core/Src/usart.c ****     GPIO_InitStruct.Pull = GPIO_NOPULL;
 105:Core/Src/usart.c ****     GPIO_InitStruct.Speed = GPIO_SPEED_FREQ_LOW;
 106:Core/Src/usart.c ****     GPIO_InitStruct.Alternate = GPIO_AF7_USART3;
 107:Core/Src/usart.c ****     HAL_GPIO_Init(GPIOD, &GPIO_InitStruct);
 108:Core/Src/usart.c **** 
 109:Core/Src/usart.c ****   /* USER CODE BEGIN USART3_MspInit 1 */
 110:Core/Src/usart.c **** 
 111:Core/Src/usart.c ****   /* USER CODE END USART3_MspInit 1 */
 112:Core/Src/usart.c ****   }
 113:Core/Src/usart.c **** }
 187              		.loc 1 113 1 view .LVU51
 188 0022 38B0     		add	sp, sp, #224
 189              	.LCFI3:
 190              		.cfi_remember_state
 191              		.cfi_def_cfa_offset 8
 192              		@ sp needed
 193 0024 10BD     		pop	{r4, pc}
 194              	.LVL11:
 195              	.L17:
 196              	.LCFI4:
 197              		.cfi_restore_state
  87:Core/Src/usart.c ****     PeriphClkInitStruct.Usart234578ClockSelection = RCC_USART234578CLKSOURCE_D2PCLK1;
 198              		.loc 1 87 5 is_stmt 1 view .LVU52
  87:Core/Src/usart.c ****     PeriphClkInitStruct.Usart234578ClockSelection = RCC_USART234578CLKSOURCE_D2PCLK1;
 199              		.loc 1 87 46 is_stmt 0 view .LVU53
 200 0026 0222     		movs	r2, #2
 201 0028 0023     		movs	r3, #0
 202 002a CDE90223 		strd	r2, [sp, #8]
  88:Core/Src/usart.c ****     if (HAL_RCCEx_PeriphCLKConfig(&PeriphClkInitStruct) != HAL_OK)
 203              		.loc 1 88 5 is_stmt 1 view .LVU54
  89:Core/Src/usart.c ****     {
 204              		.loc 1 89 5 view .LVU55
  89:Core/Src/usart.c ****     {
 205              		.loc 1 89 9 is_stmt 0 view .LVU56
 206 002e 02A8     		add	r0, sp, #8
 207 0030 FFF7FEFF 		bl	HAL_RCCEx_PeriphCLKConfig
 208              	.LVL12:
  89:Core/Src/usart.c ****     {
 209              		.loc 1 89 8 view .LVU57
 210 0034 38BB     		cbnz	r0, .L18
 211              	.L15:
  95:Core/Src/usart.c **** 
 212              		.loc 1 95 5 is_stmt 1 view .LVU58
 213              	.LBB2:
  95:Core/Src/usart.c **** 
 214              		.loc 1 95 5 view .LVU59
  95:Core/Src/usart.c **** 
 215              		.loc 1 95 5 view .LVU60
 216 0036 164B     		ldr	r3, .L19+4
 217 0038 D3F84821 		ldr	r2, [r3, #328]
 218 003c 42F48022 		orr	r2, r2, #262144
 219 0040 C3F84821 		str	r2, [r3, #328]
ARM GAS  /tmp/ccHYg4Z6.s 			page 7


  95:Core/Src/usart.c **** 
 220              		.loc 1 95 5 view .LVU61
 221 0044 D3F84821 		ldr	r2, [r3, #328]
 222 0048 02F48022 		and	r2, r2, #262144
 223 004c 0092     		str	r2, [sp]
  95:Core/Src/usart.c **** 
 224              		.loc 1 95 5 view .LVU62
 225 004e 009A     		ldr	r2, [sp]
 226              	.LBE2:
  95:Core/Src/usart.c **** 
 227              		.loc 1 95 5 view .LVU63
  97:Core/Src/usart.c ****     /**USART3 GPIO Configuration
 228              		.loc 1 97 5 view .LVU64
 229              	.LBB3:
  97:Core/Src/usart.c ****     /**USART3 GPIO Configuration
 230              		.loc 1 97 5 view .LVU65
  97:Core/Src/usart.c ****     /**USART3 GPIO Configuration
 231              		.loc 1 97 5 view .LVU66
 232 0050 D3F84021 		ldr	r2, [r3, #320]
 233 0054 42F00802 		orr	r2, r2, #8
 234 0058 C3F84021 		str	r2, [r3, #320]
  97:Core/Src/usart.c ****     /**USART3 GPIO Configuration
 235              		.loc 1 97 5 view .LVU67
 236 005c D3F84031 		ldr	r3, [r3, #320]
 237 0060 03F00803 		and	r3, r3, #8
 238 0064 0193     		str	r3, [sp, #4]
  97:Core/Src/usart.c ****     /**USART3 GPIO Configuration
 239              		.loc 1 97 5 view .LVU68
 240 0066 019B     		ldr	r3, [sp, #4]
 241              	.LBE3:
  97:Core/Src/usart.c ****     /**USART3 GPIO Configuration
 242              		.loc 1 97 5 view .LVU69
 102:Core/Src/usart.c ****     GPIO_InitStruct.Mode = GPIO_MODE_AF_PP;
 243              		.loc 1 102 5 view .LVU70
 102:Core/Src/usart.c ****     GPIO_InitStruct.Mode = GPIO_MODE_AF_PP;
 244              		.loc 1 102 25 is_stmt 0 view .LVU71
 245 0068 4FF44073 		mov	r3, #768
 246 006c 3393     		str	r3, [sp, #204]
 103:Core/Src/usart.c ****     GPIO_InitStruct.Pull = GPIO_NOPULL;
 247              		.loc 1 103 5 is_stmt 1 view .LVU72
 103:Core/Src/usart.c ****     GPIO_InitStruct.Pull = GPIO_NOPULL;
 248              		.loc 1 103 26 is_stmt 0 view .LVU73
 249 006e 0223     		movs	r3, #2
 250 0070 3493     		str	r3, [sp, #208]
 104:Core/Src/usart.c ****     GPIO_InitStruct.Speed = GPIO_SPEED_FREQ_LOW;
 251              		.loc 1 104 5 is_stmt 1 view .LVU74
 104:Core/Src/usart.c ****     GPIO_InitStruct.Speed = GPIO_SPEED_FREQ_LOW;
 252              		.loc 1 104 26 is_stmt 0 view .LVU75
 253 0072 0023     		movs	r3, #0
 254 0074 3593     		str	r3, [sp, #212]
 105:Core/Src/usart.c ****     GPIO_InitStruct.Alternate = GPIO_AF7_USART3;
 255              		.loc 1 105 5 is_stmt 1 view .LVU76
 105:Core/Src/usart.c ****     GPIO_InitStruct.Alternate = GPIO_AF7_USART3;
 256              		.loc 1 105 27 is_stmt 0 view .LVU77
 257 0076 3693     		str	r3, [sp, #216]
 106:Core/Src/usart.c ****     HAL_GPIO_Init(GPIOD, &GPIO_InitStruct);
 258              		.loc 1 106 5 is_stmt 1 view .LVU78
ARM GAS  /tmp/ccHYg4Z6.s 			page 8


 106:Core/Src/usart.c ****     HAL_GPIO_Init(GPIOD, &GPIO_InitStruct);
 259              		.loc 1 106 31 is_stmt 0 view .LVU79
 260 0078 0723     		movs	r3, #7
 261 007a 3793     		str	r3, [sp, #220]
 107:Core/Src/usart.c **** 
 262              		.loc 1 107 5 is_stmt 1 view .LVU80
 263 007c 33A9     		add	r1, sp, #204
 264 007e 0548     		ldr	r0, .L19+8
 265 0080 FFF7FEFF 		bl	HAL_GPIO_Init
 266              	.LVL13:
 267              		.loc 1 113 1 is_stmt 0 view .LVU81
 268 0084 CDE7     		b	.L13
 269              	.L18:
  91:Core/Src/usart.c ****     }
 270              		.loc 1 91 7 is_stmt 1 view .LVU82
 271 0086 FFF7FEFF 		bl	Error_Handler
 272              	.LVL14:
 273 008a D4E7     		b	.L15
 274              	.L20:
 275              		.align	2
 276              	.L19:
 277 008c 00480040 		.word	1073760256
 278 0090 00440258 		.word	1476543488
 279 0094 000C0258 		.word	1476529152
 280              		.cfi_endproc
 281              	.LFE145:
 283              		.section	.text.HAL_UART_MspDeInit,"ax",%progbits
 284              		.align	1
 285              		.global	HAL_UART_MspDeInit
 286              		.syntax unified
 287              		.thumb
 288              		.thumb_func
 290              	HAL_UART_MspDeInit:
 291              	.LVL15:
 292              	.LFB146:
 114:Core/Src/usart.c **** 
 115:Core/Src/usart.c **** void HAL_UART_MspDeInit(UART_HandleTypeDef* uartHandle)
 116:Core/Src/usart.c **** {
 293              		.loc 1 116 1 view -0
 294              		.cfi_startproc
 295              		@ args = 0, pretend = 0, frame = 0
 296              		@ frame_needed = 0, uses_anonymous_args = 0
 297              		.loc 1 116 1 is_stmt 0 view .LVU84
 298 0000 08B5     		push	{r3, lr}
 299              	.LCFI5:
 300              		.cfi_def_cfa_offset 8
 301              		.cfi_offset 3, -8
 302              		.cfi_offset 14, -4
 117:Core/Src/usart.c **** 
 118:Core/Src/usart.c ****   if(uartHandle->Instance==USART3)
 303              		.loc 1 118 3 is_stmt 1 view .LVU85
 304              		.loc 1 118 16 is_stmt 0 view .LVU86
 305 0002 0268     		ldr	r2, [r0]
 306              		.loc 1 118 5 view .LVU87
 307 0004 084B     		ldr	r3, .L25
 308 0006 9A42     		cmp	r2, r3
 309 0008 00D0     		beq	.L24
ARM GAS  /tmp/ccHYg4Z6.s 			page 9


 310              	.LVL16:
 311              	.L21:
 119:Core/Src/usart.c ****   {
 120:Core/Src/usart.c ****   /* USER CODE BEGIN USART3_MspDeInit 0 */
 121:Core/Src/usart.c **** 
 122:Core/Src/usart.c ****   /* USER CODE END USART3_MspDeInit 0 */
 123:Core/Src/usart.c ****     /* Peripheral clock disable */
 124:Core/Src/usart.c ****     __HAL_RCC_USART3_CLK_DISABLE();
 125:Core/Src/usart.c **** 
 126:Core/Src/usart.c ****     /**USART3 GPIO Configuration
 127:Core/Src/usart.c ****     PD8     ------> USART3_TX
 128:Core/Src/usart.c ****     PD9     ------> USART3_RX
 129:Core/Src/usart.c ****     */
 130:Core/Src/usart.c ****     HAL_GPIO_DeInit(GPIOD, STLINK_RX_Pin|STLINK_TX_Pin);
 131:Core/Src/usart.c **** 
 132:Core/Src/usart.c ****   /* USER CODE BEGIN USART3_MspDeInit 1 */
 133:Core/Src/usart.c **** 
 134:Core/Src/usart.c ****   /* USER CODE END USART3_MspDeInit 1 */
 135:Core/Src/usart.c ****   }
 136:Core/Src/usart.c **** }
 312              		.loc 1 136 1 view .LVU88
 313 000a 08BD     		pop	{r3, pc}
 314              	.LVL17:
 315              	.L24:
 124:Core/Src/usart.c **** 
 316              		.loc 1 124 5 is_stmt 1 view .LVU89
 317 000c 074A     		ldr	r2, .L25+4
 318 000e D2F84831 		ldr	r3, [r2, #328]
 319 0012 23F48023 		bic	r3, r3, #262144
 320 0016 C2F84831 		str	r3, [r2, #328]
 130:Core/Src/usart.c **** 
 321              		.loc 1 130 5 view .LVU90
 322 001a 4FF44071 		mov	r1, #768
 323 001e 0448     		ldr	r0, .L25+8
 324              	.LVL18:
 130:Core/Src/usart.c **** 
 325              		.loc 1 130 5 is_stmt 0 view .LVU91
 326 0020 FFF7FEFF 		bl	HAL_GPIO_DeInit
 327              	.LVL19:
 328              		.loc 1 136 1 view .LVU92
 329 0024 F1E7     		b	.L21
 330              	.L26:
 331 0026 00BF     		.align	2
 332              	.L25:
 333 0028 00480040 		.word	1073760256
 334 002c 00440258 		.word	1476543488
 335 0030 000C0258 		.word	1476529152
 336              		.cfi_endproc
 337              	.LFE146:
 339              		.global	huart3
 340              		.section	.bss.huart3,"aw",%nobits
 341              		.align	2
 344              	huart3:
 345 0000 00000000 		.space	148
 345      00000000 
 345      00000000 
 345      00000000 
ARM GAS  /tmp/ccHYg4Z6.s 			page 10


 345      00000000 
 346              		.text
 347              	.Letext0:
 348              		.file 2 "/home/jack/ece331/Downloads/arm-gnu-toolchain-12.2.rel1-aarch64-arm-none-eabi/arm-none-ea
 349              		.file 3 "/home/jack/ece331/Downloads/arm-gnu-toolchain-12.2.rel1-aarch64-arm-none-eabi/arm-none-ea
 350              		.file 4 "Drivers/CMSIS/Device/ST/STM32H7xx/Include/stm32h7a3xxq.h"
 351              		.file 5 "Drivers/STM32H7xx_HAL_Driver/Inc/stm32h7xx_hal_def.h"
 352              		.file 6 "Drivers/STM32H7xx_HAL_Driver/Inc/stm32h7xx_hal_rcc_ex.h"
 353              		.file 7 "Drivers/STM32H7xx_HAL_Driver/Inc/stm32h7xx_hal_gpio.h"
 354              		.file 8 "Drivers/STM32H7xx_HAL_Driver/Inc/stm32h7xx_hal_dma.h"
 355              		.file 9 "Drivers/STM32H7xx_HAL_Driver/Inc/stm32h7xx_hal_uart.h"
 356              		.file 10 "Drivers/STM32H7xx_HAL_Driver/Inc/stm32h7xx_hal_uart_ex.h"
 357              		.file 11 "Core/Inc/usart.h"
 358              		.file 12 "Core/Inc/main.h"
 359              		.file 13 "<built-in>"
ARM GAS  /tmp/ccHYg4Z6.s 			page 11

