ARM GAS  /tmp/ccpuhKFW.s 			page 1


   1              		.cpu cortex-m7
   2              		.arch armv7e-m
   3              		.fpu fpv5-d16
   4              		.eabi_attribute 28, 1
   5              		.eabi_attribute 20, 1
   6              		.eabi_attribute 21, 1
   7              		.eabi_attribute 23, 3
   8              		.eabi_attribute 24, 1
   9              		.eabi_attribute 25, 1
  10              		.eabi_attribute 26, 1
  11              		.eabi_attribute 30, 1
  12              		.eabi_attribute 34, 1
  13              		.eabi_attribute 18, 4
  14              		.file	"usbd_conf.c"
  15              		.text
  16              	.Ltext0:
  17              		.cfi_sections	.debug_frame
  18              		.file 1 "USB_DEVICE/Target/usbd_conf.c"
  19              		.section	.text.HAL_PCD_MspInit,"ax",%progbits
  20              		.align	1
  21              		.global	HAL_PCD_MspInit
  22              		.syntax unified
  23              		.thumb
  24              		.thumb_func
  26              	HAL_PCD_MspInit:
  27              	.LVL0:
  28              	.LFB148:
   1:USB_DEVICE/Target/usbd_conf.c **** /* USER CODE BEGIN Header */
   2:USB_DEVICE/Target/usbd_conf.c **** /**
   3:USB_DEVICE/Target/usbd_conf.c ****   ******************************************************************************
   4:USB_DEVICE/Target/usbd_conf.c ****   * @file           : Target/usbd_conf.c
   5:USB_DEVICE/Target/usbd_conf.c ****   * @version        : v1.0_Cube
   6:USB_DEVICE/Target/usbd_conf.c ****   * @brief          : This file implements the board support package for the USB device library
   7:USB_DEVICE/Target/usbd_conf.c ****   ******************************************************************************
   8:USB_DEVICE/Target/usbd_conf.c ****   * @attention
   9:USB_DEVICE/Target/usbd_conf.c ****   *
  10:USB_DEVICE/Target/usbd_conf.c ****   * Copyright (c) 2023 STMicroelectronics.
  11:USB_DEVICE/Target/usbd_conf.c ****   * All rights reserved.
  12:USB_DEVICE/Target/usbd_conf.c ****   *
  13:USB_DEVICE/Target/usbd_conf.c ****   * This software is licensed under terms that can be found in the LICENSE file
  14:USB_DEVICE/Target/usbd_conf.c ****   * in the root directory of this software component.
  15:USB_DEVICE/Target/usbd_conf.c ****   * If no LICENSE file comes with this software, it is provided AS-IS.
  16:USB_DEVICE/Target/usbd_conf.c ****   *
  17:USB_DEVICE/Target/usbd_conf.c ****   ******************************************************************************
  18:USB_DEVICE/Target/usbd_conf.c ****   */
  19:USB_DEVICE/Target/usbd_conf.c **** /* USER CODE END Header */
  20:USB_DEVICE/Target/usbd_conf.c **** 
  21:USB_DEVICE/Target/usbd_conf.c **** /* Includes ------------------------------------------------------------------*/
  22:USB_DEVICE/Target/usbd_conf.c **** #include "stm32h7xx.h"
  23:USB_DEVICE/Target/usbd_conf.c **** #include "stm32h7xx_hal.h"
  24:USB_DEVICE/Target/usbd_conf.c **** #include "usbd_def.h"
  25:USB_DEVICE/Target/usbd_conf.c **** #include "usbd_core.h"
  26:USB_DEVICE/Target/usbd_conf.c **** #include "usbd_cdc.h"
  27:USB_DEVICE/Target/usbd_conf.c **** 
  28:USB_DEVICE/Target/usbd_conf.c **** /* USER CODE BEGIN Includes */
  29:USB_DEVICE/Target/usbd_conf.c **** 
  30:USB_DEVICE/Target/usbd_conf.c **** /* USER CODE END Includes */
ARM GAS  /tmp/ccpuhKFW.s 			page 2


  31:USB_DEVICE/Target/usbd_conf.c **** 
  32:USB_DEVICE/Target/usbd_conf.c **** /* Private typedef -----------------------------------------------------------*/
  33:USB_DEVICE/Target/usbd_conf.c **** /* Private define ------------------------------------------------------------*/
  34:USB_DEVICE/Target/usbd_conf.c **** /* Private macro -------------------------------------------------------------*/
  35:USB_DEVICE/Target/usbd_conf.c **** 
  36:USB_DEVICE/Target/usbd_conf.c **** /* USER CODE BEGIN PV */
  37:USB_DEVICE/Target/usbd_conf.c **** /* Private variables ---------------------------------------------------------*/
  38:USB_DEVICE/Target/usbd_conf.c **** 
  39:USB_DEVICE/Target/usbd_conf.c **** /* USER CODE END PV */
  40:USB_DEVICE/Target/usbd_conf.c **** 
  41:USB_DEVICE/Target/usbd_conf.c **** PCD_HandleTypeDef hpcd_USB_OTG_HS;
  42:USB_DEVICE/Target/usbd_conf.c **** void Error_Handler(void);
  43:USB_DEVICE/Target/usbd_conf.c **** 
  44:USB_DEVICE/Target/usbd_conf.c **** /* External functions --------------------------------------------------------*/
  45:USB_DEVICE/Target/usbd_conf.c **** 
  46:USB_DEVICE/Target/usbd_conf.c **** /* USER CODE BEGIN 0 */
  47:USB_DEVICE/Target/usbd_conf.c **** 
  48:USB_DEVICE/Target/usbd_conf.c **** /* USER CODE END 0 */
  49:USB_DEVICE/Target/usbd_conf.c **** 
  50:USB_DEVICE/Target/usbd_conf.c **** /* USER CODE BEGIN PFP */
  51:USB_DEVICE/Target/usbd_conf.c **** /* Private function prototypes -----------------------------------------------*/
  52:USB_DEVICE/Target/usbd_conf.c **** USBD_StatusTypeDef USBD_Get_USB_Status(HAL_StatusTypeDef hal_status);
  53:USB_DEVICE/Target/usbd_conf.c **** 
  54:USB_DEVICE/Target/usbd_conf.c **** /* USER CODE END PFP */
  55:USB_DEVICE/Target/usbd_conf.c **** 
  56:USB_DEVICE/Target/usbd_conf.c **** /* Private functions ---------------------------------------------------------*/
  57:USB_DEVICE/Target/usbd_conf.c **** 
  58:USB_DEVICE/Target/usbd_conf.c **** /* USER CODE BEGIN 1 */
  59:USB_DEVICE/Target/usbd_conf.c **** /* USER CODE END 1 */
  60:USB_DEVICE/Target/usbd_conf.c **** 
  61:USB_DEVICE/Target/usbd_conf.c **** /*******************************************************************************
  62:USB_DEVICE/Target/usbd_conf.c ****                        LL Driver Callbacks (PCD -> USB Device Library)
  63:USB_DEVICE/Target/usbd_conf.c **** *******************************************************************************/
  64:USB_DEVICE/Target/usbd_conf.c **** /* MSP Init */
  65:USB_DEVICE/Target/usbd_conf.c **** 
  66:USB_DEVICE/Target/usbd_conf.c **** void HAL_PCD_MspInit(PCD_HandleTypeDef* pcdHandle)
  67:USB_DEVICE/Target/usbd_conf.c **** {
  29              		.loc 1 67 1 view -0
  30              		.cfi_startproc
  31              		@ args = 0, pretend = 0, frame = 224
  32              		@ frame_needed = 0, uses_anonymous_args = 0
  33              		.loc 1 67 1 is_stmt 0 view .LVU1
  34 0000 F0B5     		push	{r4, r5, r6, r7, lr}
  35              	.LCFI0:
  36              		.cfi_def_cfa_offset 20
  37              		.cfi_offset 4, -20
  38              		.cfi_offset 5, -16
  39              		.cfi_offset 6, -12
  40              		.cfi_offset 7, -8
  41              		.cfi_offset 14, -4
  42 0002 B9B0     		sub	sp, sp, #228
  43              	.LCFI1:
  44              		.cfi_def_cfa_offset 248
  45 0004 0446     		mov	r4, r0
  68:USB_DEVICE/Target/usbd_conf.c ****   GPIO_InitTypeDef GPIO_InitStruct = {0};
  46              		.loc 1 68 3 is_stmt 1 view .LVU2
  47              		.loc 1 68 20 is_stmt 0 view .LVU3
ARM GAS  /tmp/ccpuhKFW.s 			page 3


  48 0006 0021     		movs	r1, #0
  49 0008 3391     		str	r1, [sp, #204]
  50 000a 3491     		str	r1, [sp, #208]
  51 000c 3591     		str	r1, [sp, #212]
  52 000e 3691     		str	r1, [sp, #216]
  53 0010 3791     		str	r1, [sp, #220]
  69:USB_DEVICE/Target/usbd_conf.c ****   RCC_PeriphCLKInitTypeDef PeriphClkInitStruct = {0};
  54              		.loc 1 69 3 is_stmt 1 view .LVU4
  55              		.loc 1 69 28 is_stmt 0 view .LVU5
  56 0012 C022     		movs	r2, #192
  57 0014 02A8     		add	r0, sp, #8
  58              	.LVL1:
  59              		.loc 1 69 28 view .LVU6
  60 0016 FFF7FEFF 		bl	memset
  61              	.LVL2:
  70:USB_DEVICE/Target/usbd_conf.c ****   if(pcdHandle->Instance==USB_OTG_HS)
  62              		.loc 1 70 3 is_stmt 1 view .LVU7
  63              		.loc 1 70 15 is_stmt 0 view .LVU8
  64 001a 2268     		ldr	r2, [r4]
  65              		.loc 1 70 5 view .LVU9
  66 001c 2D4B     		ldr	r3, .L7
  67 001e 9A42     		cmp	r2, r3
  68 0020 01D0     		beq	.L5
  69              	.LVL3:
  70              	.L1:
  71:USB_DEVICE/Target/usbd_conf.c ****   {
  72:USB_DEVICE/Target/usbd_conf.c ****   /* USER CODE BEGIN USB_OTG_HS_MspInit 0 */
  73:USB_DEVICE/Target/usbd_conf.c **** 
  74:USB_DEVICE/Target/usbd_conf.c ****   /* USER CODE END USB_OTG_HS_MspInit 0 */
  75:USB_DEVICE/Target/usbd_conf.c **** 
  76:USB_DEVICE/Target/usbd_conf.c ****   /** Initializes the peripherals clock
  77:USB_DEVICE/Target/usbd_conf.c ****   */
  78:USB_DEVICE/Target/usbd_conf.c ****     PeriphClkInitStruct.PeriphClockSelection = RCC_PERIPHCLK_USB;
  79:USB_DEVICE/Target/usbd_conf.c ****     PeriphClkInitStruct.UsbClockSelection = RCC_USBCLKSOURCE_HSI48;
  80:USB_DEVICE/Target/usbd_conf.c ****     if (HAL_RCCEx_PeriphCLKConfig(&PeriphClkInitStruct) != HAL_OK)
  81:USB_DEVICE/Target/usbd_conf.c ****     {
  82:USB_DEVICE/Target/usbd_conf.c ****       Error_Handler();
  83:USB_DEVICE/Target/usbd_conf.c ****     }
  84:USB_DEVICE/Target/usbd_conf.c **** 
  85:USB_DEVICE/Target/usbd_conf.c ****   /** Enable USB Voltage detector
  86:USB_DEVICE/Target/usbd_conf.c ****   */
  87:USB_DEVICE/Target/usbd_conf.c ****     HAL_PWREx_EnableUSBVoltageDetector();
  88:USB_DEVICE/Target/usbd_conf.c **** 
  89:USB_DEVICE/Target/usbd_conf.c ****     __HAL_RCC_GPIOA_CLK_ENABLE();
  90:USB_DEVICE/Target/usbd_conf.c ****     /**USB_OTG_HS GPIO Configuration
  91:USB_DEVICE/Target/usbd_conf.c ****     PA9     ------> USB_OTG_HS_VBUS
  92:USB_DEVICE/Target/usbd_conf.c ****     PA10     ------> USB_OTG_HS_ID
  93:USB_DEVICE/Target/usbd_conf.c ****     PA11     ------> USB_OTG_HS_DM
  94:USB_DEVICE/Target/usbd_conf.c ****     PA12     ------> USB_OTG_HS_DP
  95:USB_DEVICE/Target/usbd_conf.c ****     */
  96:USB_DEVICE/Target/usbd_conf.c ****     GPIO_InitStruct.Pin = USB_FS_VBUS_Pin;
  97:USB_DEVICE/Target/usbd_conf.c ****     GPIO_InitStruct.Mode = GPIO_MODE_INPUT;
  98:USB_DEVICE/Target/usbd_conf.c ****     GPIO_InitStruct.Pull = GPIO_NOPULL;
  99:USB_DEVICE/Target/usbd_conf.c ****     HAL_GPIO_Init(USB_FS_VBUS_GPIO_Port, &GPIO_InitStruct);
 100:USB_DEVICE/Target/usbd_conf.c **** 
 101:USB_DEVICE/Target/usbd_conf.c ****     GPIO_InitStruct.Pin = USB_FS_ID_Pin;
 102:USB_DEVICE/Target/usbd_conf.c ****     GPIO_InitStruct.Mode = GPIO_MODE_AF_PP;
ARM GAS  /tmp/ccpuhKFW.s 			page 4


 103:USB_DEVICE/Target/usbd_conf.c ****     GPIO_InitStruct.Pull = GPIO_NOPULL;
 104:USB_DEVICE/Target/usbd_conf.c ****     GPIO_InitStruct.Speed = GPIO_SPEED_FREQ_LOW;
 105:USB_DEVICE/Target/usbd_conf.c ****     GPIO_InitStruct.Alternate = GPIO_AF10_OTG1_HS;
 106:USB_DEVICE/Target/usbd_conf.c ****     HAL_GPIO_Init(USB_FS_ID_GPIO_Port, &GPIO_InitStruct);
 107:USB_DEVICE/Target/usbd_conf.c **** 
 108:USB_DEVICE/Target/usbd_conf.c ****     GPIO_InitStruct.Pin = USB_FS_N_Pin|USB_FS_P_Pin;
 109:USB_DEVICE/Target/usbd_conf.c ****     GPIO_InitStruct.Mode = GPIO_MODE_AF_PP;
 110:USB_DEVICE/Target/usbd_conf.c ****     GPIO_InitStruct.Pull = GPIO_NOPULL;
 111:USB_DEVICE/Target/usbd_conf.c ****     GPIO_InitStruct.Speed = GPIO_SPEED_FREQ_LOW;
 112:USB_DEVICE/Target/usbd_conf.c ****     HAL_GPIO_Init(GPIOA, &GPIO_InitStruct);
 113:USB_DEVICE/Target/usbd_conf.c **** 
 114:USB_DEVICE/Target/usbd_conf.c ****     /* Peripheral clock enable */
 115:USB_DEVICE/Target/usbd_conf.c ****     __HAL_RCC_USB_OTG_HS_CLK_ENABLE();
 116:USB_DEVICE/Target/usbd_conf.c **** 
 117:USB_DEVICE/Target/usbd_conf.c ****     /* Peripheral interrupt init */
 118:USB_DEVICE/Target/usbd_conf.c ****     HAL_NVIC_SetPriority(OTG_HS_IRQn, 0, 0);
 119:USB_DEVICE/Target/usbd_conf.c ****     HAL_NVIC_EnableIRQ(OTG_HS_IRQn);
 120:USB_DEVICE/Target/usbd_conf.c ****   /* USER CODE BEGIN USB_OTG_HS_MspInit 1 */
 121:USB_DEVICE/Target/usbd_conf.c **** 
 122:USB_DEVICE/Target/usbd_conf.c ****   /* USER CODE END USB_OTG_HS_MspInit 1 */
 123:USB_DEVICE/Target/usbd_conf.c ****   }
 124:USB_DEVICE/Target/usbd_conf.c **** }
  71              		.loc 1 124 1 view .LVU10
  72 0022 39B0     		add	sp, sp, #228
  73              	.LCFI2:
  74              		.cfi_remember_state
  75              		.cfi_def_cfa_offset 20
  76              		@ sp needed
  77 0024 F0BD     		pop	{r4, r5, r6, r7, pc}
  78              	.LVL4:
  79              	.L5:
  80              	.LCFI3:
  81              		.cfi_restore_state
  78:USB_DEVICE/Target/usbd_conf.c ****     PeriphClkInitStruct.UsbClockSelection = RCC_USBCLKSOURCE_HSI48;
  82              		.loc 1 78 5 is_stmt 1 view .LVU11
  78:USB_DEVICE/Target/usbd_conf.c ****     PeriphClkInitStruct.UsbClockSelection = RCC_USBCLKSOURCE_HSI48;
  83              		.loc 1 78 46 is_stmt 0 view .LVU12
  84 0026 4FF48022 		mov	r2, #262144
  85 002a 0023     		movs	r3, #0
  86 002c CDE90223 		strd	r2, [sp, #8]
  79:USB_DEVICE/Target/usbd_conf.c ****     if (HAL_RCCEx_PeriphCLKConfig(&PeriphClkInitStruct) != HAL_OK)
  87              		.loc 1 79 5 is_stmt 1 view .LVU13
  79:USB_DEVICE/Target/usbd_conf.c ****     if (HAL_RCCEx_PeriphCLKConfig(&PeriphClkInitStruct) != HAL_OK)
  88              		.loc 1 79 43 is_stmt 0 view .LVU14
  89 0030 4FF44013 		mov	r3, #3145728
  90 0034 2693     		str	r3, [sp, #152]
  80:USB_DEVICE/Target/usbd_conf.c ****     {
  91              		.loc 1 80 5 is_stmt 1 view .LVU15
  80:USB_DEVICE/Target/usbd_conf.c ****     {
  92              		.loc 1 80 9 is_stmt 0 view .LVU16
  93 0036 02A8     		add	r0, sp, #8
  94 0038 FFF7FEFF 		bl	HAL_RCCEx_PeriphCLKConfig
  95              	.LVL5:
  80:USB_DEVICE/Target/usbd_conf.c ****     {
  96              		.loc 1 80 8 view .LVU17
  97 003c 0028     		cmp	r0, #0
  98 003e 45D1     		bne	.L6
ARM GAS  /tmp/ccpuhKFW.s 			page 5


  99              	.L3:
  87:USB_DEVICE/Target/usbd_conf.c **** 
 100              		.loc 1 87 5 is_stmt 1 view .LVU18
 101 0040 FFF7FEFF 		bl	HAL_PWREx_EnableUSBVoltageDetector
 102              	.LVL6:
  89:USB_DEVICE/Target/usbd_conf.c ****     /**USB_OTG_HS GPIO Configuration
 103              		.loc 1 89 5 view .LVU19
 104              	.LBB2:
  89:USB_DEVICE/Target/usbd_conf.c ****     /**USB_OTG_HS GPIO Configuration
 105              		.loc 1 89 5 view .LVU20
  89:USB_DEVICE/Target/usbd_conf.c ****     /**USB_OTG_HS GPIO Configuration
 106              		.loc 1 89 5 view .LVU21
 107 0044 244D     		ldr	r5, .L7+4
 108 0046 D5F84031 		ldr	r3, [r5, #320]
 109 004a 43F00103 		orr	r3, r3, #1
 110 004e C5F84031 		str	r3, [r5, #320]
  89:USB_DEVICE/Target/usbd_conf.c ****     /**USB_OTG_HS GPIO Configuration
 111              		.loc 1 89 5 view .LVU22
 112 0052 D5F84031 		ldr	r3, [r5, #320]
 113 0056 03F00103 		and	r3, r3, #1
 114 005a 0093     		str	r3, [sp]
  89:USB_DEVICE/Target/usbd_conf.c ****     /**USB_OTG_HS GPIO Configuration
 115              		.loc 1 89 5 view .LVU23
 116 005c 009B     		ldr	r3, [sp]
 117              	.LBE2:
  89:USB_DEVICE/Target/usbd_conf.c ****     /**USB_OTG_HS GPIO Configuration
 118              		.loc 1 89 5 view .LVU24
  96:USB_DEVICE/Target/usbd_conf.c ****     GPIO_InitStruct.Mode = GPIO_MODE_INPUT;
 119              		.loc 1 96 5 view .LVU25
  96:USB_DEVICE/Target/usbd_conf.c ****     GPIO_InitStruct.Mode = GPIO_MODE_INPUT;
 120              		.loc 1 96 25 is_stmt 0 view .LVU26
 121 005e 4FF40073 		mov	r3, #512
 122 0062 3393     		str	r3, [sp, #204]
  97:USB_DEVICE/Target/usbd_conf.c ****     GPIO_InitStruct.Pull = GPIO_NOPULL;
 123              		.loc 1 97 5 is_stmt 1 view .LVU27
  97:USB_DEVICE/Target/usbd_conf.c ****     GPIO_InitStruct.Pull = GPIO_NOPULL;
 124              		.loc 1 97 26 is_stmt 0 view .LVU28
 125 0064 0024     		movs	r4, #0
 126              	.LVL7:
  97:USB_DEVICE/Target/usbd_conf.c ****     GPIO_InitStruct.Pull = GPIO_NOPULL;
 127              		.loc 1 97 26 view .LVU29
 128 0066 3494     		str	r4, [sp, #208]
  98:USB_DEVICE/Target/usbd_conf.c ****     HAL_GPIO_Init(USB_FS_VBUS_GPIO_Port, &GPIO_InitStruct);
 129              		.loc 1 98 5 is_stmt 1 view .LVU30
  98:USB_DEVICE/Target/usbd_conf.c ****     HAL_GPIO_Init(USB_FS_VBUS_GPIO_Port, &GPIO_InitStruct);
 130              		.loc 1 98 26 is_stmt 0 view .LVU31
 131 0068 3594     		str	r4, [sp, #212]
  99:USB_DEVICE/Target/usbd_conf.c **** 
 132              		.loc 1 99 5 is_stmt 1 view .LVU32
 133 006a 1C4E     		ldr	r6, .L7+8
 134 006c 33A9     		add	r1, sp, #204
 135 006e 3046     		mov	r0, r6
 136 0070 FFF7FEFF 		bl	HAL_GPIO_Init
 137              	.LVL8:
 101:USB_DEVICE/Target/usbd_conf.c ****     GPIO_InitStruct.Mode = GPIO_MODE_AF_PP;
 138              		.loc 1 101 5 view .LVU33
 101:USB_DEVICE/Target/usbd_conf.c ****     GPIO_InitStruct.Mode = GPIO_MODE_AF_PP;
ARM GAS  /tmp/ccpuhKFW.s 			page 6


 139              		.loc 1 101 25 is_stmt 0 view .LVU34
 140 0074 4FF48063 		mov	r3, #1024
 141 0078 3393     		str	r3, [sp, #204]
 102:USB_DEVICE/Target/usbd_conf.c ****     GPIO_InitStruct.Pull = GPIO_NOPULL;
 142              		.loc 1 102 5 is_stmt 1 view .LVU35
 102:USB_DEVICE/Target/usbd_conf.c ****     GPIO_InitStruct.Pull = GPIO_NOPULL;
 143              		.loc 1 102 26 is_stmt 0 view .LVU36
 144 007a 0227     		movs	r7, #2
 145 007c 3497     		str	r7, [sp, #208]
 103:USB_DEVICE/Target/usbd_conf.c ****     GPIO_InitStruct.Speed = GPIO_SPEED_FREQ_LOW;
 146              		.loc 1 103 5 is_stmt 1 view .LVU37
 103:USB_DEVICE/Target/usbd_conf.c ****     GPIO_InitStruct.Speed = GPIO_SPEED_FREQ_LOW;
 147              		.loc 1 103 26 is_stmt 0 view .LVU38
 148 007e 3594     		str	r4, [sp, #212]
 104:USB_DEVICE/Target/usbd_conf.c ****     GPIO_InitStruct.Alternate = GPIO_AF10_OTG1_HS;
 149              		.loc 1 104 5 is_stmt 1 view .LVU39
 104:USB_DEVICE/Target/usbd_conf.c ****     GPIO_InitStruct.Alternate = GPIO_AF10_OTG1_HS;
 150              		.loc 1 104 27 is_stmt 0 view .LVU40
 151 0080 3694     		str	r4, [sp, #216]
 105:USB_DEVICE/Target/usbd_conf.c ****     HAL_GPIO_Init(USB_FS_ID_GPIO_Port, &GPIO_InitStruct);
 152              		.loc 1 105 5 is_stmt 1 view .LVU41
 105:USB_DEVICE/Target/usbd_conf.c ****     HAL_GPIO_Init(USB_FS_ID_GPIO_Port, &GPIO_InitStruct);
 153              		.loc 1 105 31 is_stmt 0 view .LVU42
 154 0082 0A23     		movs	r3, #10
 155 0084 3793     		str	r3, [sp, #220]
 106:USB_DEVICE/Target/usbd_conf.c **** 
 156              		.loc 1 106 5 is_stmt 1 view .LVU43
 157 0086 33A9     		add	r1, sp, #204
 158 0088 3046     		mov	r0, r6
 159 008a FFF7FEFF 		bl	HAL_GPIO_Init
 160              	.LVL9:
 108:USB_DEVICE/Target/usbd_conf.c ****     GPIO_InitStruct.Mode = GPIO_MODE_AF_PP;
 161              		.loc 1 108 5 view .LVU44
 108:USB_DEVICE/Target/usbd_conf.c ****     GPIO_InitStruct.Mode = GPIO_MODE_AF_PP;
 162              		.loc 1 108 25 is_stmt 0 view .LVU45
 163 008e 4FF4C053 		mov	r3, #6144
 164 0092 3393     		str	r3, [sp, #204]
 109:USB_DEVICE/Target/usbd_conf.c ****     GPIO_InitStruct.Pull = GPIO_NOPULL;
 165              		.loc 1 109 5 is_stmt 1 view .LVU46
 109:USB_DEVICE/Target/usbd_conf.c ****     GPIO_InitStruct.Pull = GPIO_NOPULL;
 166              		.loc 1 109 26 is_stmt 0 view .LVU47
 167 0094 3497     		str	r7, [sp, #208]
 110:USB_DEVICE/Target/usbd_conf.c ****     GPIO_InitStruct.Speed = GPIO_SPEED_FREQ_LOW;
 168              		.loc 1 110 5 is_stmt 1 view .LVU48
 110:USB_DEVICE/Target/usbd_conf.c ****     GPIO_InitStruct.Speed = GPIO_SPEED_FREQ_LOW;
 169              		.loc 1 110 26 is_stmt 0 view .LVU49
 170 0096 3594     		str	r4, [sp, #212]
 111:USB_DEVICE/Target/usbd_conf.c ****     HAL_GPIO_Init(GPIOA, &GPIO_InitStruct);
 171              		.loc 1 111 5 is_stmt 1 view .LVU50
 111:USB_DEVICE/Target/usbd_conf.c ****     HAL_GPIO_Init(GPIOA, &GPIO_InitStruct);
 172              		.loc 1 111 27 is_stmt 0 view .LVU51
 173 0098 3694     		str	r4, [sp, #216]
 112:USB_DEVICE/Target/usbd_conf.c **** 
 174              		.loc 1 112 5 is_stmt 1 view .LVU52
 175 009a 33A9     		add	r1, sp, #204
 176 009c 3046     		mov	r0, r6
 177 009e FFF7FEFF 		bl	HAL_GPIO_Init
ARM GAS  /tmp/ccpuhKFW.s 			page 7


 178              	.LVL10:
 115:USB_DEVICE/Target/usbd_conf.c **** 
 179              		.loc 1 115 5 view .LVU53
 180              	.LBB3:
 115:USB_DEVICE/Target/usbd_conf.c **** 
 181              		.loc 1 115 5 view .LVU54
 115:USB_DEVICE/Target/usbd_conf.c **** 
 182              		.loc 1 115 5 view .LVU55
 183 00a2 D5F83831 		ldr	r3, [r5, #312]
 184 00a6 43F00073 		orr	r3, r3, #33554432
 185 00aa C5F83831 		str	r3, [r5, #312]
 115:USB_DEVICE/Target/usbd_conf.c **** 
 186              		.loc 1 115 5 view .LVU56
 187 00ae D5F83831 		ldr	r3, [r5, #312]
 188 00b2 03F00073 		and	r3, r3, #33554432
 189 00b6 0193     		str	r3, [sp, #4]
 115:USB_DEVICE/Target/usbd_conf.c **** 
 190              		.loc 1 115 5 view .LVU57
 191 00b8 019B     		ldr	r3, [sp, #4]
 192              	.LBE3:
 115:USB_DEVICE/Target/usbd_conf.c **** 
 193              		.loc 1 115 5 view .LVU58
 118:USB_DEVICE/Target/usbd_conf.c ****     HAL_NVIC_EnableIRQ(OTG_HS_IRQn);
 194              		.loc 1 118 5 view .LVU59
 195 00ba 2246     		mov	r2, r4
 196 00bc 2146     		mov	r1, r4
 197 00be 4D20     		movs	r0, #77
 198 00c0 FFF7FEFF 		bl	HAL_NVIC_SetPriority
 199              	.LVL11:
 119:USB_DEVICE/Target/usbd_conf.c ****   /* USER CODE BEGIN USB_OTG_HS_MspInit 1 */
 200              		.loc 1 119 5 view .LVU60
 201 00c4 4D20     		movs	r0, #77
 202 00c6 FFF7FEFF 		bl	HAL_NVIC_EnableIRQ
 203              	.LVL12:
 204              		.loc 1 124 1 is_stmt 0 view .LVU61
 205 00ca AAE7     		b	.L1
 206              	.LVL13:
 207              	.L6:
  82:USB_DEVICE/Target/usbd_conf.c ****     }
 208              		.loc 1 82 7 is_stmt 1 view .LVU62
 209 00cc FFF7FEFF 		bl	Error_Handler
 210              	.LVL14:
 211 00d0 B6E7     		b	.L3
 212              	.L8:
 213 00d2 00BF     		.align	2
 214              	.L7:
 215 00d4 00000440 		.word	1074003968
 216 00d8 00440258 		.word	1476543488
 217 00dc 00000258 		.word	1476526080
 218              		.cfi_endproc
 219              	.LFE148:
 221              		.section	.text.HAL_PCD_MspDeInit,"ax",%progbits
 222              		.align	1
 223              		.global	HAL_PCD_MspDeInit
 224              		.syntax unified
 225              		.thumb
 226              		.thumb_func
ARM GAS  /tmp/ccpuhKFW.s 			page 8


 228              	HAL_PCD_MspDeInit:
 229              	.LVL15:
 230              	.LFB149:
 125:USB_DEVICE/Target/usbd_conf.c **** 
 126:USB_DEVICE/Target/usbd_conf.c **** void HAL_PCD_MspDeInit(PCD_HandleTypeDef* pcdHandle)
 127:USB_DEVICE/Target/usbd_conf.c **** {
 231              		.loc 1 127 1 view -0
 232              		.cfi_startproc
 233              		@ args = 0, pretend = 0, frame = 0
 234              		@ frame_needed = 0, uses_anonymous_args = 0
 235              		.loc 1 127 1 is_stmt 0 view .LVU64
 236 0000 08B5     		push	{r3, lr}
 237              	.LCFI4:
 238              		.cfi_def_cfa_offset 8
 239              		.cfi_offset 3, -8
 240              		.cfi_offset 14, -4
 128:USB_DEVICE/Target/usbd_conf.c ****   if(pcdHandle->Instance==USB_OTG_HS)
 241              		.loc 1 128 3 is_stmt 1 view .LVU65
 242              		.loc 1 128 15 is_stmt 0 view .LVU66
 243 0002 0268     		ldr	r2, [r0]
 244              		.loc 1 128 5 view .LVU67
 245 0004 094B     		ldr	r3, .L13
 246 0006 9A42     		cmp	r2, r3
 247 0008 00D0     		beq	.L12
 248              	.LVL16:
 249              	.L9:
 129:USB_DEVICE/Target/usbd_conf.c ****   {
 130:USB_DEVICE/Target/usbd_conf.c ****   /* USER CODE BEGIN USB_OTG_HS_MspDeInit 0 */
 131:USB_DEVICE/Target/usbd_conf.c **** 
 132:USB_DEVICE/Target/usbd_conf.c ****   /* USER CODE END USB_OTG_HS_MspDeInit 0 */
 133:USB_DEVICE/Target/usbd_conf.c ****     /* Peripheral clock disable */
 134:USB_DEVICE/Target/usbd_conf.c ****     __HAL_RCC_USB_OTG_HS_CLK_DISABLE();
 135:USB_DEVICE/Target/usbd_conf.c **** 
 136:USB_DEVICE/Target/usbd_conf.c ****     /**USB_OTG_HS GPIO Configuration
 137:USB_DEVICE/Target/usbd_conf.c ****     PA9     ------> USB_OTG_HS_VBUS
 138:USB_DEVICE/Target/usbd_conf.c ****     PA10     ------> USB_OTG_HS_ID
 139:USB_DEVICE/Target/usbd_conf.c ****     PA11     ------> USB_OTG_HS_DM
 140:USB_DEVICE/Target/usbd_conf.c ****     PA12     ------> USB_OTG_HS_DP
 141:USB_DEVICE/Target/usbd_conf.c ****     */
 142:USB_DEVICE/Target/usbd_conf.c ****     HAL_GPIO_DeInit(GPIOA, USB_FS_VBUS_Pin|USB_FS_ID_Pin|USB_FS_N_Pin|USB_FS_P_Pin);
 143:USB_DEVICE/Target/usbd_conf.c **** 
 144:USB_DEVICE/Target/usbd_conf.c ****     /* Peripheral interrupt Deinit*/
 145:USB_DEVICE/Target/usbd_conf.c ****     HAL_NVIC_DisableIRQ(OTG_HS_IRQn);
 146:USB_DEVICE/Target/usbd_conf.c **** 
 147:USB_DEVICE/Target/usbd_conf.c ****   /* USER CODE BEGIN USB_OTG_HS_MspDeInit 1 */
 148:USB_DEVICE/Target/usbd_conf.c **** 
 149:USB_DEVICE/Target/usbd_conf.c ****   /* USER CODE END USB_OTG_HS_MspDeInit 1 */
 150:USB_DEVICE/Target/usbd_conf.c ****   }
 151:USB_DEVICE/Target/usbd_conf.c **** }
 250              		.loc 1 151 1 view .LVU68
 251 000a 08BD     		pop	{r3, pc}
 252              	.LVL17:
 253              	.L12:
 134:USB_DEVICE/Target/usbd_conf.c **** 
 254              		.loc 1 134 5 is_stmt 1 view .LVU69
 255 000c 084A     		ldr	r2, .L13+4
 256 000e D2F83831 		ldr	r3, [r2, #312]
ARM GAS  /tmp/ccpuhKFW.s 			page 9


 257 0012 23F00073 		bic	r3, r3, #33554432
 258 0016 C2F83831 		str	r3, [r2, #312]
 142:USB_DEVICE/Target/usbd_conf.c **** 
 259              		.loc 1 142 5 view .LVU70
 260 001a 4FF4F051 		mov	r1, #7680
 261 001e 0548     		ldr	r0, .L13+8
 262              	.LVL18:
 142:USB_DEVICE/Target/usbd_conf.c **** 
 263              		.loc 1 142 5 is_stmt 0 view .LVU71
 264 0020 FFF7FEFF 		bl	HAL_GPIO_DeInit
 265              	.LVL19:
 145:USB_DEVICE/Target/usbd_conf.c **** 
 266              		.loc 1 145 5 is_stmt 1 view .LVU72
 267 0024 4D20     		movs	r0, #77
 268 0026 FFF7FEFF 		bl	HAL_NVIC_DisableIRQ
 269              	.LVL20:
 270              		.loc 1 151 1 is_stmt 0 view .LVU73
 271 002a EEE7     		b	.L9
 272              	.L14:
 273              		.align	2
 274              	.L13:
 275 002c 00000440 		.word	1074003968
 276 0030 00440258 		.word	1476543488
 277 0034 00000258 		.word	1476526080
 278              		.cfi_endproc
 279              	.LFE149:
 281              		.section	.text.HAL_PCD_SetupStageCallback,"ax",%progbits
 282              		.align	1
 283              		.global	HAL_PCD_SetupStageCallback
 284              		.syntax unified
 285              		.thumb
 286              		.thumb_func
 288              	HAL_PCD_SetupStageCallback:
 289              	.LVL21:
 290              	.LFB150:
 152:USB_DEVICE/Target/usbd_conf.c **** 
 153:USB_DEVICE/Target/usbd_conf.c **** /**
 154:USB_DEVICE/Target/usbd_conf.c ****   * @brief  Setup stage callback
 155:USB_DEVICE/Target/usbd_conf.c ****   * @param  hpcd: PCD handle
 156:USB_DEVICE/Target/usbd_conf.c ****   * @retval None
 157:USB_DEVICE/Target/usbd_conf.c ****   */
 158:USB_DEVICE/Target/usbd_conf.c **** #if (USE_HAL_PCD_REGISTER_CALLBACKS == 1U)
 159:USB_DEVICE/Target/usbd_conf.c **** static void PCD_SetupStageCallback(PCD_HandleTypeDef *hpcd)
 160:USB_DEVICE/Target/usbd_conf.c **** #else
 161:USB_DEVICE/Target/usbd_conf.c **** void HAL_PCD_SetupStageCallback(PCD_HandleTypeDef *hpcd)
 162:USB_DEVICE/Target/usbd_conf.c **** #endif /* USE_HAL_PCD_REGISTER_CALLBACKS */
 163:USB_DEVICE/Target/usbd_conf.c **** {
 291              		.loc 1 163 1 is_stmt 1 view -0
 292              		.cfi_startproc
 293              		@ args = 0, pretend = 0, frame = 0
 294              		@ frame_needed = 0, uses_anonymous_args = 0
 295              		.loc 1 163 1 is_stmt 0 view .LVU75
 296 0000 08B5     		push	{r3, lr}
 297              	.LCFI5:
 298              		.cfi_def_cfa_offset 8
 299              		.cfi_offset 3, -8
 300              		.cfi_offset 14, -4
ARM GAS  /tmp/ccpuhKFW.s 			page 10


 164:USB_DEVICE/Target/usbd_conf.c ****   USBD_LL_SetupStage((USBD_HandleTypeDef*)hpcd->pData, (uint8_t *)hpcd->Setup);
 301              		.loc 1 164 3 is_stmt 1 view .LVU76
 302 0002 00F2C441 		addw	r1, r0, #1220
 303 0006 D0F80805 		ldr	r0, [r0, #1288]
 304              	.LVL22:
 305              		.loc 1 164 3 is_stmt 0 view .LVU77
 306 000a FFF7FEFF 		bl	USBD_LL_SetupStage
 307              	.LVL23:
 165:USB_DEVICE/Target/usbd_conf.c **** }
 308              		.loc 1 165 1 view .LVU78
 309 000e 08BD     		pop	{r3, pc}
 310              		.cfi_endproc
 311              	.LFE150:
 313              		.section	.text.HAL_PCD_DataOutStageCallback,"ax",%progbits
 314              		.align	1
 315              		.global	HAL_PCD_DataOutStageCallback
 316              		.syntax unified
 317              		.thumb
 318              		.thumb_func
 320              	HAL_PCD_DataOutStageCallback:
 321              	.LVL24:
 322              	.LFB151:
 166:USB_DEVICE/Target/usbd_conf.c **** 
 167:USB_DEVICE/Target/usbd_conf.c **** /**
 168:USB_DEVICE/Target/usbd_conf.c ****   * @brief  Data Out stage callback.
 169:USB_DEVICE/Target/usbd_conf.c ****   * @param  hpcd: PCD handle
 170:USB_DEVICE/Target/usbd_conf.c ****   * @param  epnum: Endpoint number
 171:USB_DEVICE/Target/usbd_conf.c ****   * @retval None
 172:USB_DEVICE/Target/usbd_conf.c ****   */
 173:USB_DEVICE/Target/usbd_conf.c **** #if (USE_HAL_PCD_REGISTER_CALLBACKS == 1U)
 174:USB_DEVICE/Target/usbd_conf.c **** static void PCD_DataOutStageCallback(PCD_HandleTypeDef *hpcd, uint8_t epnum)
 175:USB_DEVICE/Target/usbd_conf.c **** #else
 176:USB_DEVICE/Target/usbd_conf.c **** void HAL_PCD_DataOutStageCallback(PCD_HandleTypeDef *hpcd, uint8_t epnum)
 177:USB_DEVICE/Target/usbd_conf.c **** #endif /* USE_HAL_PCD_REGISTER_CALLBACKS */
 178:USB_DEVICE/Target/usbd_conf.c **** {
 323              		.loc 1 178 1 is_stmt 1 view -0
 324              		.cfi_startproc
 325              		@ args = 0, pretend = 0, frame = 0
 326              		@ frame_needed = 0, uses_anonymous_args = 0
 327              		.loc 1 178 1 is_stmt 0 view .LVU80
 328 0000 08B5     		push	{r3, lr}
 329              	.LCFI6:
 330              		.cfi_def_cfa_offset 8
 331              		.cfi_offset 3, -8
 332              		.cfi_offset 14, -4
 179:USB_DEVICE/Target/usbd_conf.c ****   USBD_LL_DataOutStage((USBD_HandleTypeDef*)hpcd->pData, epnum, hpcd->OUT_ep[epnum].xfer_buff);
 333              		.loc 1 179 3 is_stmt 1 view .LVU81
 334 0002 01EBC103 		add	r3, r1, r1, lsl #3
 335 0006 00EB8303 		add	r3, r0, r3, lsl #2
 336 000a D3F88822 		ldr	r2, [r3, #648]
 337 000e D0F80805 		ldr	r0, [r0, #1288]
 338              	.LVL25:
 339              		.loc 1 179 3 is_stmt 0 view .LVU82
 340 0012 FFF7FEFF 		bl	USBD_LL_DataOutStage
 341              	.LVL26:
 180:USB_DEVICE/Target/usbd_conf.c **** }
 342              		.loc 1 180 1 view .LVU83
ARM GAS  /tmp/ccpuhKFW.s 			page 11


 343 0016 08BD     		pop	{r3, pc}
 344              		.cfi_endproc
 345              	.LFE151:
 347              		.section	.text.HAL_PCD_DataInStageCallback,"ax",%progbits
 348              		.align	1
 349              		.global	HAL_PCD_DataInStageCallback
 350              		.syntax unified
 351              		.thumb
 352              		.thumb_func
 354              	HAL_PCD_DataInStageCallback:
 355              	.LVL27:
 356              	.LFB152:
 181:USB_DEVICE/Target/usbd_conf.c **** 
 182:USB_DEVICE/Target/usbd_conf.c **** /**
 183:USB_DEVICE/Target/usbd_conf.c ****   * @brief  Data In stage callback.
 184:USB_DEVICE/Target/usbd_conf.c ****   * @param  hpcd: PCD handle
 185:USB_DEVICE/Target/usbd_conf.c ****   * @param  epnum: Endpoint number
 186:USB_DEVICE/Target/usbd_conf.c ****   * @retval None
 187:USB_DEVICE/Target/usbd_conf.c ****   */
 188:USB_DEVICE/Target/usbd_conf.c **** #if (USE_HAL_PCD_REGISTER_CALLBACKS == 1U)
 189:USB_DEVICE/Target/usbd_conf.c **** static void PCD_DataInStageCallback(PCD_HandleTypeDef *hpcd, uint8_t epnum)
 190:USB_DEVICE/Target/usbd_conf.c **** #else
 191:USB_DEVICE/Target/usbd_conf.c **** void HAL_PCD_DataInStageCallback(PCD_HandleTypeDef *hpcd, uint8_t epnum)
 192:USB_DEVICE/Target/usbd_conf.c **** #endif /* USE_HAL_PCD_REGISTER_CALLBACKS */
 193:USB_DEVICE/Target/usbd_conf.c **** {
 357              		.loc 1 193 1 is_stmt 1 view -0
 358              		.cfi_startproc
 359              		@ args = 0, pretend = 0, frame = 0
 360              		@ frame_needed = 0, uses_anonymous_args = 0
 361              		.loc 1 193 1 is_stmt 0 view .LVU85
 362 0000 08B5     		push	{r3, lr}
 363              	.LCFI7:
 364              		.cfi_def_cfa_offset 8
 365              		.cfi_offset 3, -8
 366              		.cfi_offset 14, -4
 194:USB_DEVICE/Target/usbd_conf.c ****   USBD_LL_DataInStage((USBD_HandleTypeDef*)hpcd->pData, epnum, hpcd->IN_ep[epnum].xfer_buff);
 367              		.loc 1 194 3 is_stmt 1 view .LVU86
 368 0002 01EBC103 		add	r3, r1, r1, lsl #3
 369 0006 00EB8303 		add	r3, r0, r3, lsl #2
 370 000a 9A6C     		ldr	r2, [r3, #72]
 371 000c D0F80805 		ldr	r0, [r0, #1288]
 372              	.LVL28:
 373              		.loc 1 194 3 is_stmt 0 view .LVU87
 374 0010 FFF7FEFF 		bl	USBD_LL_DataInStage
 375              	.LVL29:
 195:USB_DEVICE/Target/usbd_conf.c **** }
 376              		.loc 1 195 1 view .LVU88
 377 0014 08BD     		pop	{r3, pc}
 378              		.cfi_endproc
 379              	.LFE152:
 381              		.section	.text.HAL_PCD_SOFCallback,"ax",%progbits
 382              		.align	1
 383              		.global	HAL_PCD_SOFCallback
 384              		.syntax unified
 385              		.thumb
 386              		.thumb_func
 388              	HAL_PCD_SOFCallback:
ARM GAS  /tmp/ccpuhKFW.s 			page 12


 389              	.LVL30:
 390              	.LFB153:
 196:USB_DEVICE/Target/usbd_conf.c **** 
 197:USB_DEVICE/Target/usbd_conf.c **** /**
 198:USB_DEVICE/Target/usbd_conf.c ****   * @brief  SOF callback.
 199:USB_DEVICE/Target/usbd_conf.c ****   * @param  hpcd: PCD handle
 200:USB_DEVICE/Target/usbd_conf.c ****   * @retval None
 201:USB_DEVICE/Target/usbd_conf.c ****   */
 202:USB_DEVICE/Target/usbd_conf.c **** #if (USE_HAL_PCD_REGISTER_CALLBACKS == 1U)
 203:USB_DEVICE/Target/usbd_conf.c **** static void PCD_SOFCallback(PCD_HandleTypeDef *hpcd)
 204:USB_DEVICE/Target/usbd_conf.c **** #else
 205:USB_DEVICE/Target/usbd_conf.c **** void HAL_PCD_SOFCallback(PCD_HandleTypeDef *hpcd)
 206:USB_DEVICE/Target/usbd_conf.c **** #endif /* USE_HAL_PCD_REGISTER_CALLBACKS */
 207:USB_DEVICE/Target/usbd_conf.c **** {
 391              		.loc 1 207 1 is_stmt 1 view -0
 392              		.cfi_startproc
 393              		@ args = 0, pretend = 0, frame = 0
 394              		@ frame_needed = 0, uses_anonymous_args = 0
 395              		.loc 1 207 1 is_stmt 0 view .LVU90
 396 0000 08B5     		push	{r3, lr}
 397              	.LCFI8:
 398              		.cfi_def_cfa_offset 8
 399              		.cfi_offset 3, -8
 400              		.cfi_offset 14, -4
 208:USB_DEVICE/Target/usbd_conf.c ****   USBD_LL_SOF((USBD_HandleTypeDef*)hpcd->pData);
 401              		.loc 1 208 3 is_stmt 1 view .LVU91
 402 0002 D0F80805 		ldr	r0, [r0, #1288]
 403              	.LVL31:
 404              		.loc 1 208 3 is_stmt 0 view .LVU92
 405 0006 FFF7FEFF 		bl	USBD_LL_SOF
 406              	.LVL32:
 209:USB_DEVICE/Target/usbd_conf.c **** }
 407              		.loc 1 209 1 view .LVU93
 408 000a 08BD     		pop	{r3, pc}
 409              		.cfi_endproc
 410              	.LFE153:
 412              		.section	.text.HAL_PCD_ResetCallback,"ax",%progbits
 413              		.align	1
 414              		.global	HAL_PCD_ResetCallback
 415              		.syntax unified
 416              		.thumb
 417              		.thumb_func
 419              	HAL_PCD_ResetCallback:
 420              	.LVL33:
 421              	.LFB154:
 210:USB_DEVICE/Target/usbd_conf.c **** 
 211:USB_DEVICE/Target/usbd_conf.c **** /**
 212:USB_DEVICE/Target/usbd_conf.c ****   * @brief  Reset callback.
 213:USB_DEVICE/Target/usbd_conf.c ****   * @param  hpcd: PCD handle
 214:USB_DEVICE/Target/usbd_conf.c ****   * @retval None
 215:USB_DEVICE/Target/usbd_conf.c ****   */
 216:USB_DEVICE/Target/usbd_conf.c **** #if (USE_HAL_PCD_REGISTER_CALLBACKS == 1U)
 217:USB_DEVICE/Target/usbd_conf.c **** static void PCD_ResetCallback(PCD_HandleTypeDef *hpcd)
 218:USB_DEVICE/Target/usbd_conf.c **** #else
 219:USB_DEVICE/Target/usbd_conf.c **** void HAL_PCD_ResetCallback(PCD_HandleTypeDef *hpcd)
 220:USB_DEVICE/Target/usbd_conf.c **** #endif /* USE_HAL_PCD_REGISTER_CALLBACKS */
 221:USB_DEVICE/Target/usbd_conf.c **** {
ARM GAS  /tmp/ccpuhKFW.s 			page 13


 422              		.loc 1 221 1 is_stmt 1 view -0
 423              		.cfi_startproc
 424              		@ args = 0, pretend = 0, frame = 0
 425              		@ frame_needed = 0, uses_anonymous_args = 0
 426              		.loc 1 221 1 is_stmt 0 view .LVU95
 427 0000 10B5     		push	{r4, lr}
 428              	.LCFI9:
 429              		.cfi_def_cfa_offset 8
 430              		.cfi_offset 4, -8
 431              		.cfi_offset 14, -4
 432 0002 0446     		mov	r4, r0
 222:USB_DEVICE/Target/usbd_conf.c ****   USBD_SpeedTypeDef speed = USBD_SPEED_FULL;
 433              		.loc 1 222 3 is_stmt 1 view .LVU96
 434              	.LVL34:
 223:USB_DEVICE/Target/usbd_conf.c **** 
 224:USB_DEVICE/Target/usbd_conf.c ****   if ( hpcd->Init.speed == PCD_SPEED_HIGH)
 435              		.loc 1 224 3 view .LVU97
 436              		.loc 1 224 18 is_stmt 0 view .LVU98
 437 0004 0369     		ldr	r3, [r0, #16]
 438              		.loc 1 224 6 view .LVU99
 439 0006 3BB1     		cbz	r3, .L25
 225:USB_DEVICE/Target/usbd_conf.c ****   {
 226:USB_DEVICE/Target/usbd_conf.c ****     speed = USBD_SPEED_HIGH;
 227:USB_DEVICE/Target/usbd_conf.c ****   }
 228:USB_DEVICE/Target/usbd_conf.c ****   else if ( hpcd->Init.speed == PCD_SPEED_FULL)
 440              		.loc 1 228 8 is_stmt 1 view .LVU100
 441              		.loc 1 228 11 is_stmt 0 view .LVU101
 442 0008 022B     		cmp	r3, #2
 443 000a 01D1     		bne	.L28
 229:USB_DEVICE/Target/usbd_conf.c ****   {
 230:USB_DEVICE/Target/usbd_conf.c ****     speed = USBD_SPEED_FULL;
 444              		.loc 1 230 11 view .LVU102
 445 000c 0121     		movs	r1, #1
 446 000e 04E0     		b	.L24
 447              	.L28:
 231:USB_DEVICE/Target/usbd_conf.c ****   }
 232:USB_DEVICE/Target/usbd_conf.c ****   else
 233:USB_DEVICE/Target/usbd_conf.c ****   {
 234:USB_DEVICE/Target/usbd_conf.c ****     Error_Handler();
 448              		.loc 1 234 5 is_stmt 1 view .LVU103
 449 0010 FFF7FEFF 		bl	Error_Handler
 450              	.LVL35:
 222:USB_DEVICE/Target/usbd_conf.c **** 
 451              		.loc 1 222 21 is_stmt 0 view .LVU104
 452 0014 0121     		movs	r1, #1
 453 0016 00E0     		b	.L24
 454              	.LVL36:
 455              	.L25:
 226:USB_DEVICE/Target/usbd_conf.c ****   }
 456              		.loc 1 226 11 view .LVU105
 457 0018 0021     		movs	r1, #0
 458              	.LVL37:
 459              	.L24:
 235:USB_DEVICE/Target/usbd_conf.c ****   }
 236:USB_DEVICE/Target/usbd_conf.c ****     /* Set Speed. */
 237:USB_DEVICE/Target/usbd_conf.c ****   USBD_LL_SetSpeed((USBD_HandleTypeDef*)hpcd->pData, speed);
 460              		.loc 1 237 3 is_stmt 1 view .LVU106
ARM GAS  /tmp/ccpuhKFW.s 			page 14


 461 001a D4F80805 		ldr	r0, [r4, #1288]
 462 001e FFF7FEFF 		bl	USBD_LL_SetSpeed
 463              	.LVL38:
 238:USB_DEVICE/Target/usbd_conf.c **** 
 239:USB_DEVICE/Target/usbd_conf.c ****   /* Reset Device. */
 240:USB_DEVICE/Target/usbd_conf.c ****   USBD_LL_Reset((USBD_HandleTypeDef*)hpcd->pData);
 464              		.loc 1 240 3 view .LVU107
 465 0022 D4F80805 		ldr	r0, [r4, #1288]
 466 0026 FFF7FEFF 		bl	USBD_LL_Reset
 467              	.LVL39:
 241:USB_DEVICE/Target/usbd_conf.c **** }
 468              		.loc 1 241 1 is_stmt 0 view .LVU108
 469 002a 10BD     		pop	{r4, pc}
 470              		.loc 1 241 1 view .LVU109
 471              		.cfi_endproc
 472              	.LFE154:
 474              		.section	.text.HAL_PCD_SuspendCallback,"ax",%progbits
 475              		.align	1
 476              		.global	HAL_PCD_SuspendCallback
 477              		.syntax unified
 478              		.thumb
 479              		.thumb_func
 481              	HAL_PCD_SuspendCallback:
 482              	.LVL40:
 483              	.LFB155:
 242:USB_DEVICE/Target/usbd_conf.c **** 
 243:USB_DEVICE/Target/usbd_conf.c **** /**
 244:USB_DEVICE/Target/usbd_conf.c ****   * @brief  Suspend callback.
 245:USB_DEVICE/Target/usbd_conf.c ****   * When Low power mode is enabled the debug cannot be used (IAR, Keil doesn't support it)
 246:USB_DEVICE/Target/usbd_conf.c ****   * @param  hpcd: PCD handle
 247:USB_DEVICE/Target/usbd_conf.c ****   * @retval None
 248:USB_DEVICE/Target/usbd_conf.c ****   */
 249:USB_DEVICE/Target/usbd_conf.c **** #if (USE_HAL_PCD_REGISTER_CALLBACKS == 1U)
 250:USB_DEVICE/Target/usbd_conf.c **** static void PCD_SuspendCallback(PCD_HandleTypeDef *hpcd)
 251:USB_DEVICE/Target/usbd_conf.c **** #else
 252:USB_DEVICE/Target/usbd_conf.c **** void HAL_PCD_SuspendCallback(PCD_HandleTypeDef *hpcd)
 253:USB_DEVICE/Target/usbd_conf.c **** #endif /* USE_HAL_PCD_REGISTER_CALLBACKS */
 254:USB_DEVICE/Target/usbd_conf.c **** {
 484              		.loc 1 254 1 is_stmt 1 view -0
 485              		.cfi_startproc
 486              		@ args = 0, pretend = 0, frame = 0
 487              		@ frame_needed = 0, uses_anonymous_args = 0
 488              		.loc 1 254 1 is_stmt 0 view .LVU111
 489 0000 10B5     		push	{r4, lr}
 490              	.LCFI10:
 491              		.cfi_def_cfa_offset 8
 492              		.cfi_offset 4, -8
 493              		.cfi_offset 14, -4
 494 0002 0446     		mov	r4, r0
 255:USB_DEVICE/Target/usbd_conf.c ****   /* Inform USB library that core enters in suspend Mode. */
 256:USB_DEVICE/Target/usbd_conf.c ****   USBD_LL_Suspend((USBD_HandleTypeDef*)hpcd->pData);
 495              		.loc 1 256 3 is_stmt 1 view .LVU112
 496 0004 D0F80805 		ldr	r0, [r0, #1288]
 497              	.LVL41:
 498              		.loc 1 256 3 is_stmt 0 view .LVU113
 499 0008 FFF7FEFF 		bl	USBD_LL_Suspend
 500              	.LVL42:
ARM GAS  /tmp/ccpuhKFW.s 			page 15


 257:USB_DEVICE/Target/usbd_conf.c ****   __HAL_PCD_GATE_PHYCLOCK(hpcd);
 501              		.loc 1 257 3 is_stmt 1 view .LVU114
 502 000c 2268     		ldr	r2, [r4]
 503 000e D2F8003E 		ldr	r3, [r2, #3584]
 504 0012 43F00103 		orr	r3, r3, #1
 505 0016 C2F8003E 		str	r3, [r2, #3584]
 258:USB_DEVICE/Target/usbd_conf.c ****   /* Enter in STOP mode. */
 259:USB_DEVICE/Target/usbd_conf.c ****   /* USER CODE BEGIN 2 */
 260:USB_DEVICE/Target/usbd_conf.c ****   if (hpcd->Init.low_power_enable)
 506              		.loc 1 260 3 view .LVU115
 507              		.loc 1 260 17 is_stmt 0 view .LVU116
 508 001a 236A     		ldr	r3, [r4, #32]
 509              		.loc 1 260 6 view .LVU117
 510 001c 23B1     		cbz	r3, .L29
 261:USB_DEVICE/Target/usbd_conf.c ****   {
 262:USB_DEVICE/Target/usbd_conf.c ****     /* Set SLEEPDEEP bit and SleepOnExit of Cortex System Control Register. */
 263:USB_DEVICE/Target/usbd_conf.c ****     SCB->SCR |= (uint32_t)((uint32_t)(SCB_SCR_SLEEPDEEP_Msk | SCB_SCR_SLEEPONEXIT_Msk));
 511              		.loc 1 263 5 is_stmt 1 view .LVU118
 512              		.loc 1 263 8 is_stmt 0 view .LVU119
 513 001e 034A     		ldr	r2, .L32
 514 0020 1369     		ldr	r3, [r2, #16]
 515              		.loc 1 263 14 view .LVU120
 516 0022 43F00603 		orr	r3, r3, #6
 517 0026 1361     		str	r3, [r2, #16]
 518              	.L29:
 264:USB_DEVICE/Target/usbd_conf.c ****   }
 265:USB_DEVICE/Target/usbd_conf.c ****   /* USER CODE END 2 */
 266:USB_DEVICE/Target/usbd_conf.c **** }
 519              		.loc 1 266 1 view .LVU121
 520 0028 10BD     		pop	{r4, pc}
 521              	.LVL43:
 522              	.L33:
 523              		.loc 1 266 1 view .LVU122
 524 002a 00BF     		.align	2
 525              	.L32:
 526 002c 00ED00E0 		.word	-536810240
 527              		.cfi_endproc
 528              	.LFE155:
 530              		.section	.text.HAL_PCD_ResumeCallback,"ax",%progbits
 531              		.align	1
 532              		.global	HAL_PCD_ResumeCallback
 533              		.syntax unified
 534              		.thumb
 535              		.thumb_func
 537              	HAL_PCD_ResumeCallback:
 538              	.LVL44:
 539              	.LFB156:
 267:USB_DEVICE/Target/usbd_conf.c **** 
 268:USB_DEVICE/Target/usbd_conf.c **** /**
 269:USB_DEVICE/Target/usbd_conf.c ****   * @brief  Resume callback.
 270:USB_DEVICE/Target/usbd_conf.c ****   * When Low power mode is enabled the debug cannot be used (IAR, Keil doesn't support it)
 271:USB_DEVICE/Target/usbd_conf.c ****   * @param  hpcd: PCD handle
 272:USB_DEVICE/Target/usbd_conf.c ****   * @retval None
 273:USB_DEVICE/Target/usbd_conf.c ****   */
 274:USB_DEVICE/Target/usbd_conf.c **** #if (USE_HAL_PCD_REGISTER_CALLBACKS == 1U)
 275:USB_DEVICE/Target/usbd_conf.c **** static void PCD_ResumeCallback(PCD_HandleTypeDef *hpcd)
 276:USB_DEVICE/Target/usbd_conf.c **** #else
ARM GAS  /tmp/ccpuhKFW.s 			page 16


 277:USB_DEVICE/Target/usbd_conf.c **** void HAL_PCD_ResumeCallback(PCD_HandleTypeDef *hpcd)
 278:USB_DEVICE/Target/usbd_conf.c **** #endif /* USE_HAL_PCD_REGISTER_CALLBACKS */
 279:USB_DEVICE/Target/usbd_conf.c **** {
 540              		.loc 1 279 1 is_stmt 1 view -0
 541              		.cfi_startproc
 542              		@ args = 0, pretend = 0, frame = 0
 543              		@ frame_needed = 0, uses_anonymous_args = 0
 544              		.loc 1 279 1 is_stmt 0 view .LVU124
 545 0000 08B5     		push	{r3, lr}
 546              	.LCFI11:
 547              		.cfi_def_cfa_offset 8
 548              		.cfi_offset 3, -8
 549              		.cfi_offset 14, -4
 280:USB_DEVICE/Target/usbd_conf.c ****   /* USER CODE BEGIN 3 */
 281:USB_DEVICE/Target/usbd_conf.c **** 
 282:USB_DEVICE/Target/usbd_conf.c ****   /* USER CODE END 3 */
 283:USB_DEVICE/Target/usbd_conf.c ****   USBD_LL_Resume((USBD_HandleTypeDef*)hpcd->pData);
 550              		.loc 1 283 3 is_stmt 1 view .LVU125
 551 0002 D0F80805 		ldr	r0, [r0, #1288]
 552              	.LVL45:
 553              		.loc 1 283 3 is_stmt 0 view .LVU126
 554 0006 FFF7FEFF 		bl	USBD_LL_Resume
 555              	.LVL46:
 284:USB_DEVICE/Target/usbd_conf.c **** }
 556              		.loc 1 284 1 view .LVU127
 557 000a 08BD     		pop	{r3, pc}
 558              		.cfi_endproc
 559              	.LFE156:
 561              		.section	.text.HAL_PCD_ISOOUTIncompleteCallback,"ax",%progbits
 562              		.align	1
 563              		.global	HAL_PCD_ISOOUTIncompleteCallback
 564              		.syntax unified
 565              		.thumb
 566              		.thumb_func
 568              	HAL_PCD_ISOOUTIncompleteCallback:
 569              	.LVL47:
 570              	.LFB157:
 285:USB_DEVICE/Target/usbd_conf.c **** 
 286:USB_DEVICE/Target/usbd_conf.c **** /**
 287:USB_DEVICE/Target/usbd_conf.c ****   * @brief  ISOOUTIncomplete callback.
 288:USB_DEVICE/Target/usbd_conf.c ****   * @param  hpcd: PCD handle
 289:USB_DEVICE/Target/usbd_conf.c ****   * @param  epnum: Endpoint number
 290:USB_DEVICE/Target/usbd_conf.c ****   * @retval None
 291:USB_DEVICE/Target/usbd_conf.c ****   */
 292:USB_DEVICE/Target/usbd_conf.c **** #if (USE_HAL_PCD_REGISTER_CALLBACKS == 1U)
 293:USB_DEVICE/Target/usbd_conf.c **** static void PCD_ISOOUTIncompleteCallback(PCD_HandleTypeDef *hpcd, uint8_t epnum)
 294:USB_DEVICE/Target/usbd_conf.c **** #else
 295:USB_DEVICE/Target/usbd_conf.c **** void HAL_PCD_ISOOUTIncompleteCallback(PCD_HandleTypeDef *hpcd, uint8_t epnum)
 296:USB_DEVICE/Target/usbd_conf.c **** #endif /* USE_HAL_PCD_REGISTER_CALLBACKS */
 297:USB_DEVICE/Target/usbd_conf.c **** {
 571              		.loc 1 297 1 is_stmt 1 view -0
 572              		.cfi_startproc
 573              		@ args = 0, pretend = 0, frame = 0
 574              		@ frame_needed = 0, uses_anonymous_args = 0
 575              		.loc 1 297 1 is_stmt 0 view .LVU129
 576 0000 08B5     		push	{r3, lr}
 577              	.LCFI12:
ARM GAS  /tmp/ccpuhKFW.s 			page 17


 578              		.cfi_def_cfa_offset 8
 579              		.cfi_offset 3, -8
 580              		.cfi_offset 14, -4
 298:USB_DEVICE/Target/usbd_conf.c ****   USBD_LL_IsoOUTIncomplete((USBD_HandleTypeDef*)hpcd->pData, epnum);
 581              		.loc 1 298 3 is_stmt 1 view .LVU130
 582 0002 D0F80805 		ldr	r0, [r0, #1288]
 583              	.LVL48:
 584              		.loc 1 298 3 is_stmt 0 view .LVU131
 585 0006 FFF7FEFF 		bl	USBD_LL_IsoOUTIncomplete
 586              	.LVL49:
 299:USB_DEVICE/Target/usbd_conf.c **** }
 587              		.loc 1 299 1 view .LVU132
 588 000a 08BD     		pop	{r3, pc}
 589              		.cfi_endproc
 590              	.LFE157:
 592              		.section	.text.HAL_PCD_ISOINIncompleteCallback,"ax",%progbits
 593              		.align	1
 594              		.global	HAL_PCD_ISOINIncompleteCallback
 595              		.syntax unified
 596              		.thumb
 597              		.thumb_func
 599              	HAL_PCD_ISOINIncompleteCallback:
 600              	.LVL50:
 601              	.LFB158:
 300:USB_DEVICE/Target/usbd_conf.c **** 
 301:USB_DEVICE/Target/usbd_conf.c **** /**
 302:USB_DEVICE/Target/usbd_conf.c ****   * @brief  ISOINIncomplete callback.
 303:USB_DEVICE/Target/usbd_conf.c ****   * @param  hpcd: PCD handle
 304:USB_DEVICE/Target/usbd_conf.c ****   * @param  epnum: Endpoint number
 305:USB_DEVICE/Target/usbd_conf.c ****   * @retval None
 306:USB_DEVICE/Target/usbd_conf.c ****   */
 307:USB_DEVICE/Target/usbd_conf.c **** #if (USE_HAL_PCD_REGISTER_CALLBACKS == 1U)
 308:USB_DEVICE/Target/usbd_conf.c **** static void PCD_ISOINIncompleteCallback(PCD_HandleTypeDef *hpcd, uint8_t epnum)
 309:USB_DEVICE/Target/usbd_conf.c **** #else
 310:USB_DEVICE/Target/usbd_conf.c **** void HAL_PCD_ISOINIncompleteCallback(PCD_HandleTypeDef *hpcd, uint8_t epnum)
 311:USB_DEVICE/Target/usbd_conf.c **** #endif /* USE_HAL_PCD_REGISTER_CALLBACKS */
 312:USB_DEVICE/Target/usbd_conf.c **** {
 602              		.loc 1 312 1 is_stmt 1 view -0
 603              		.cfi_startproc
 604              		@ args = 0, pretend = 0, frame = 0
 605              		@ frame_needed = 0, uses_anonymous_args = 0
 606              		.loc 1 312 1 is_stmt 0 view .LVU134
 607 0000 08B5     		push	{r3, lr}
 608              	.LCFI13:
 609              		.cfi_def_cfa_offset 8
 610              		.cfi_offset 3, -8
 611              		.cfi_offset 14, -4
 313:USB_DEVICE/Target/usbd_conf.c ****   USBD_LL_IsoINIncomplete((USBD_HandleTypeDef*)hpcd->pData, epnum);
 612              		.loc 1 313 3 is_stmt 1 view .LVU135
 613 0002 D0F80805 		ldr	r0, [r0, #1288]
 614              	.LVL51:
 615              		.loc 1 313 3 is_stmt 0 view .LVU136
 616 0006 FFF7FEFF 		bl	USBD_LL_IsoINIncomplete
 617              	.LVL52:
 314:USB_DEVICE/Target/usbd_conf.c **** }
 618              		.loc 1 314 1 view .LVU137
 619 000a 08BD     		pop	{r3, pc}
ARM GAS  /tmp/ccpuhKFW.s 			page 18


 620              		.cfi_endproc
 621              	.LFE158:
 623              		.section	.text.HAL_PCD_ConnectCallback,"ax",%progbits
 624              		.align	1
 625              		.global	HAL_PCD_ConnectCallback
 626              		.syntax unified
 627              		.thumb
 628              		.thumb_func
 630              	HAL_PCD_ConnectCallback:
 631              	.LVL53:
 632              	.LFB159:
 315:USB_DEVICE/Target/usbd_conf.c **** 
 316:USB_DEVICE/Target/usbd_conf.c **** /**
 317:USB_DEVICE/Target/usbd_conf.c ****   * @brief  Connect callback.
 318:USB_DEVICE/Target/usbd_conf.c ****   * @param  hpcd: PCD handle
 319:USB_DEVICE/Target/usbd_conf.c ****   * @retval None
 320:USB_DEVICE/Target/usbd_conf.c ****   */
 321:USB_DEVICE/Target/usbd_conf.c **** #if (USE_HAL_PCD_REGISTER_CALLBACKS == 1U)
 322:USB_DEVICE/Target/usbd_conf.c **** static void PCD_ConnectCallback(PCD_HandleTypeDef *hpcd)
 323:USB_DEVICE/Target/usbd_conf.c **** #else
 324:USB_DEVICE/Target/usbd_conf.c **** void HAL_PCD_ConnectCallback(PCD_HandleTypeDef *hpcd)
 325:USB_DEVICE/Target/usbd_conf.c **** #endif /* USE_HAL_PCD_REGISTER_CALLBACKS */
 326:USB_DEVICE/Target/usbd_conf.c **** {
 633              		.loc 1 326 1 is_stmt 1 view -0
 634              		.cfi_startproc
 635              		@ args = 0, pretend = 0, frame = 0
 636              		@ frame_needed = 0, uses_anonymous_args = 0
 637              		.loc 1 326 1 is_stmt 0 view .LVU139
 638 0000 08B5     		push	{r3, lr}
 639              	.LCFI14:
 640              		.cfi_def_cfa_offset 8
 641              		.cfi_offset 3, -8
 642              		.cfi_offset 14, -4
 327:USB_DEVICE/Target/usbd_conf.c ****   USBD_LL_DevConnected((USBD_HandleTypeDef*)hpcd->pData);
 643              		.loc 1 327 3 is_stmt 1 view .LVU140
 644 0002 D0F80805 		ldr	r0, [r0, #1288]
 645              	.LVL54:
 646              		.loc 1 327 3 is_stmt 0 view .LVU141
 647 0006 FFF7FEFF 		bl	USBD_LL_DevConnected
 648              	.LVL55:
 328:USB_DEVICE/Target/usbd_conf.c **** }
 649              		.loc 1 328 1 view .LVU142
 650 000a 08BD     		pop	{r3, pc}
 651              		.cfi_endproc
 652              	.LFE159:
 654              		.section	.text.HAL_PCD_DisconnectCallback,"ax",%progbits
 655              		.align	1
 656              		.global	HAL_PCD_DisconnectCallback
 657              		.syntax unified
 658              		.thumb
 659              		.thumb_func
 661              	HAL_PCD_DisconnectCallback:
 662              	.LVL56:
 663              	.LFB160:
 329:USB_DEVICE/Target/usbd_conf.c **** 
 330:USB_DEVICE/Target/usbd_conf.c **** /**
 331:USB_DEVICE/Target/usbd_conf.c ****   * @brief  Disconnect callback.
ARM GAS  /tmp/ccpuhKFW.s 			page 19


 332:USB_DEVICE/Target/usbd_conf.c ****   * @param  hpcd: PCD handle
 333:USB_DEVICE/Target/usbd_conf.c ****   * @retval None
 334:USB_DEVICE/Target/usbd_conf.c ****   */
 335:USB_DEVICE/Target/usbd_conf.c **** #if (USE_HAL_PCD_REGISTER_CALLBACKS == 1U)
 336:USB_DEVICE/Target/usbd_conf.c **** static void PCD_DisconnectCallback(PCD_HandleTypeDef *hpcd)
 337:USB_DEVICE/Target/usbd_conf.c **** #else
 338:USB_DEVICE/Target/usbd_conf.c **** void HAL_PCD_DisconnectCallback(PCD_HandleTypeDef *hpcd)
 339:USB_DEVICE/Target/usbd_conf.c **** #endif /* USE_HAL_PCD_REGISTER_CALLBACKS */
 340:USB_DEVICE/Target/usbd_conf.c **** {
 664              		.loc 1 340 1 is_stmt 1 view -0
 665              		.cfi_startproc
 666              		@ args = 0, pretend = 0, frame = 0
 667              		@ frame_needed = 0, uses_anonymous_args = 0
 668              		.loc 1 340 1 is_stmt 0 view .LVU144
 669 0000 08B5     		push	{r3, lr}
 670              	.LCFI15:
 671              		.cfi_def_cfa_offset 8
 672              		.cfi_offset 3, -8
 673              		.cfi_offset 14, -4
 341:USB_DEVICE/Target/usbd_conf.c ****   USBD_LL_DevDisconnected((USBD_HandleTypeDef*)hpcd->pData);
 674              		.loc 1 341 3 is_stmt 1 view .LVU145
 675 0002 D0F80805 		ldr	r0, [r0, #1288]
 676              	.LVL57:
 677              		.loc 1 341 3 is_stmt 0 view .LVU146
 678 0006 FFF7FEFF 		bl	USBD_LL_DevDisconnected
 679              	.LVL58:
 342:USB_DEVICE/Target/usbd_conf.c **** }
 680              		.loc 1 342 1 view .LVU147
 681 000a 08BD     		pop	{r3, pc}
 682              		.cfi_endproc
 683              	.LFE160:
 685              		.section	.text.USBD_LL_Init,"ax",%progbits
 686              		.align	1
 687              		.global	USBD_LL_Init
 688              		.syntax unified
 689              		.thumb
 690              		.thumb_func
 692              	USBD_LL_Init:
 693              	.LVL59:
 694              	.LFB161:
 343:USB_DEVICE/Target/usbd_conf.c **** 
 344:USB_DEVICE/Target/usbd_conf.c **** /*******************************************************************************
 345:USB_DEVICE/Target/usbd_conf.c ****                        LL Driver Interface (USB Device Library --> PCD)
 346:USB_DEVICE/Target/usbd_conf.c **** *******************************************************************************/
 347:USB_DEVICE/Target/usbd_conf.c **** 
 348:USB_DEVICE/Target/usbd_conf.c **** /**
 349:USB_DEVICE/Target/usbd_conf.c ****   * @brief  Initializes the low level portion of the device driver.
 350:USB_DEVICE/Target/usbd_conf.c ****   * @param  pdev: Device handle
 351:USB_DEVICE/Target/usbd_conf.c ****   * @retval USBD status
 352:USB_DEVICE/Target/usbd_conf.c ****   */
 353:USB_DEVICE/Target/usbd_conf.c **** USBD_StatusTypeDef USBD_LL_Init(USBD_HandleTypeDef *pdev)
 354:USB_DEVICE/Target/usbd_conf.c **** {
 695              		.loc 1 354 1 is_stmt 1 view -0
 696              		.cfi_startproc
 697              		@ args = 0, pretend = 0, frame = 0
 698              		@ frame_needed = 0, uses_anonymous_args = 0
 355:USB_DEVICE/Target/usbd_conf.c ****   /* Init USB Ip. */
ARM GAS  /tmp/ccpuhKFW.s 			page 20


 356:USB_DEVICE/Target/usbd_conf.c ****   if (pdev->id == DEVICE_HS) {
 699              		.loc 1 356 3 view .LVU149
 700              		.loc 1 356 11 is_stmt 0 view .LVU150
 701 0000 0378     		ldrb	r3, [r0]	@ zero_extendqisi2
 702              		.loc 1 356 6 view .LVU151
 703 0002 012B     		cmp	r3, #1
 704 0004 01D0     		beq	.L51
 357:USB_DEVICE/Target/usbd_conf.c ****   /* Link the driver to the stack. */
 358:USB_DEVICE/Target/usbd_conf.c ****   hpcd_USB_OTG_HS.pData = pdev;
 359:USB_DEVICE/Target/usbd_conf.c ****   pdev->pData = &hpcd_USB_OTG_HS;
 360:USB_DEVICE/Target/usbd_conf.c **** 
 361:USB_DEVICE/Target/usbd_conf.c ****   hpcd_USB_OTG_HS.Instance = USB_OTG_HS;
 362:USB_DEVICE/Target/usbd_conf.c ****   hpcd_USB_OTG_HS.Init.dev_endpoints = 9;
 363:USB_DEVICE/Target/usbd_conf.c ****   hpcd_USB_OTG_HS.Init.speed = PCD_SPEED_FULL;
 364:USB_DEVICE/Target/usbd_conf.c ****   hpcd_USB_OTG_HS.Init.dma_enable = DISABLE;
 365:USB_DEVICE/Target/usbd_conf.c ****   hpcd_USB_OTG_HS.Init.phy_itface = USB_OTG_EMBEDDED_PHY;
 366:USB_DEVICE/Target/usbd_conf.c ****   hpcd_USB_OTG_HS.Init.Sof_enable = DISABLE;
 367:USB_DEVICE/Target/usbd_conf.c ****   hpcd_USB_OTG_HS.Init.low_power_enable = DISABLE;
 368:USB_DEVICE/Target/usbd_conf.c ****   hpcd_USB_OTG_HS.Init.lpm_enable = DISABLE;
 369:USB_DEVICE/Target/usbd_conf.c ****   hpcd_USB_OTG_HS.Init.vbus_sensing_enable = ENABLE;
 370:USB_DEVICE/Target/usbd_conf.c ****   hpcd_USB_OTG_HS.Init.use_dedicated_ep1 = DISABLE;
 371:USB_DEVICE/Target/usbd_conf.c ****   hpcd_USB_OTG_HS.Init.use_external_vbus = DISABLE;
 372:USB_DEVICE/Target/usbd_conf.c ****   if (HAL_PCD_Init(&hpcd_USB_OTG_HS) != HAL_OK)
 373:USB_DEVICE/Target/usbd_conf.c ****   {
 374:USB_DEVICE/Target/usbd_conf.c ****     Error_Handler( );
 375:USB_DEVICE/Target/usbd_conf.c ****   }
 376:USB_DEVICE/Target/usbd_conf.c **** 
 377:USB_DEVICE/Target/usbd_conf.c **** #if (USE_HAL_PCD_REGISTER_CALLBACKS == 1U)
 378:USB_DEVICE/Target/usbd_conf.c ****   /* Register USB PCD CallBacks */
 379:USB_DEVICE/Target/usbd_conf.c ****   HAL_PCD_RegisterCallback(&hpcd_USB_OTG_HS, HAL_PCD_SOF_CB_ID, PCD_SOFCallback);
 380:USB_DEVICE/Target/usbd_conf.c ****   HAL_PCD_RegisterCallback(&hpcd_USB_OTG_HS, HAL_PCD_SETUPSTAGE_CB_ID, PCD_SetupStageCallback);
 381:USB_DEVICE/Target/usbd_conf.c ****   HAL_PCD_RegisterCallback(&hpcd_USB_OTG_HS, HAL_PCD_RESET_CB_ID, PCD_ResetCallback);
 382:USB_DEVICE/Target/usbd_conf.c ****   HAL_PCD_RegisterCallback(&hpcd_USB_OTG_HS, HAL_PCD_SUSPEND_CB_ID, PCD_SuspendCallback);
 383:USB_DEVICE/Target/usbd_conf.c ****   HAL_PCD_RegisterCallback(&hpcd_USB_OTG_HS, HAL_PCD_RESUME_CB_ID, PCD_ResumeCallback);
 384:USB_DEVICE/Target/usbd_conf.c ****   HAL_PCD_RegisterCallback(&hpcd_USB_OTG_HS, HAL_PCD_CONNECT_CB_ID, PCD_ConnectCallback);
 385:USB_DEVICE/Target/usbd_conf.c ****   HAL_PCD_RegisterCallback(&hpcd_USB_OTG_HS, HAL_PCD_DISCONNECT_CB_ID, PCD_DisconnectCallback);
 386:USB_DEVICE/Target/usbd_conf.c **** 
 387:USB_DEVICE/Target/usbd_conf.c ****   HAL_PCD_RegisterDataOutStageCallback(&hpcd_USB_OTG_HS, PCD_DataOutStageCallback);
 388:USB_DEVICE/Target/usbd_conf.c ****   HAL_PCD_RegisterDataInStageCallback(&hpcd_USB_OTG_HS, PCD_DataInStageCallback);
 389:USB_DEVICE/Target/usbd_conf.c ****   HAL_PCD_RegisterIsoOutIncpltCallback(&hpcd_USB_OTG_HS, PCD_ISOOUTIncompleteCallback);
 390:USB_DEVICE/Target/usbd_conf.c ****   HAL_PCD_RegisterIsoInIncpltCallback(&hpcd_USB_OTG_HS, PCD_ISOINIncompleteCallback);
 391:USB_DEVICE/Target/usbd_conf.c **** #endif /* USE_HAL_PCD_REGISTER_CALLBACKS */
 392:USB_DEVICE/Target/usbd_conf.c ****   /* USER CODE BEGIN TxRx_HS_Configuration */
 393:USB_DEVICE/Target/usbd_conf.c ****   HAL_PCDEx_SetRxFiFo(&hpcd_USB_OTG_HS, 0x200);
 394:USB_DEVICE/Target/usbd_conf.c ****   HAL_PCDEx_SetTxFiFo(&hpcd_USB_OTG_HS, 0, 0x80);
 395:USB_DEVICE/Target/usbd_conf.c ****   HAL_PCDEx_SetTxFiFo(&hpcd_USB_OTG_HS, 1, 0x174);
 396:USB_DEVICE/Target/usbd_conf.c ****   /* USER CODE END TxRx_HS_Configuration */
 397:USB_DEVICE/Target/usbd_conf.c ****   }
 398:USB_DEVICE/Target/usbd_conf.c ****   return USBD_OK;
 705              		.loc 1 398 3 is_stmt 1 view .LVU152
 399:USB_DEVICE/Target/usbd_conf.c **** }
 706              		.loc 1 399 1 is_stmt 0 view .LVU153
 707 0006 0020     		movs	r0, #0
 708              	.LVL60:
 709              		.loc 1 399 1 view .LVU154
 710 0008 7047     		bx	lr
 711              	.LVL61:
ARM GAS  /tmp/ccpuhKFW.s 			page 21


 712              	.L51:
 354:USB_DEVICE/Target/usbd_conf.c ****   /* Init USB Ip. */
 713              		.loc 1 354 1 view .LVU155
 714 000a 10B5     		push	{r4, lr}
 715              	.LCFI16:
 716              		.cfi_def_cfa_offset 8
 717              		.cfi_offset 4, -8
 718              		.cfi_offset 14, -4
 358:USB_DEVICE/Target/usbd_conf.c ****   pdev->pData = &hpcd_USB_OTG_HS;
 719              		.loc 1 358 3 is_stmt 1 view .LVU156
 358:USB_DEVICE/Target/usbd_conf.c ****   pdev->pData = &hpcd_USB_OTG_HS;
 720              		.loc 1 358 25 is_stmt 0 view .LVU157
 721 000c 174B     		ldr	r3, .L53
 722 000e C3F80805 		str	r0, [r3, #1288]
 359:USB_DEVICE/Target/usbd_conf.c **** 
 723              		.loc 1 359 3 is_stmt 1 view .LVU158
 359:USB_DEVICE/Target/usbd_conf.c **** 
 724              		.loc 1 359 15 is_stmt 0 view .LVU159
 725 0012 C0F8C832 		str	r3, [r0, #712]
 361:USB_DEVICE/Target/usbd_conf.c ****   hpcd_USB_OTG_HS.Init.dev_endpoints = 9;
 726              		.loc 1 361 3 is_stmt 1 view .LVU160
 361:USB_DEVICE/Target/usbd_conf.c ****   hpcd_USB_OTG_HS.Init.dev_endpoints = 9;
 727              		.loc 1 361 28 is_stmt 0 view .LVU161
 728 0016 164A     		ldr	r2, .L53+4
 729 0018 1A60     		str	r2, [r3]
 362:USB_DEVICE/Target/usbd_conf.c ****   hpcd_USB_OTG_HS.Init.speed = PCD_SPEED_FULL;
 730              		.loc 1 362 3 is_stmt 1 view .LVU162
 362:USB_DEVICE/Target/usbd_conf.c ****   hpcd_USB_OTG_HS.Init.speed = PCD_SPEED_FULL;
 731              		.loc 1 362 38 is_stmt 0 view .LVU163
 732 001a 0922     		movs	r2, #9
 733 001c 5A60     		str	r2, [r3, #4]
 363:USB_DEVICE/Target/usbd_conf.c ****   hpcd_USB_OTG_HS.Init.dma_enable = DISABLE;
 734              		.loc 1 363 3 is_stmt 1 view .LVU164
 363:USB_DEVICE/Target/usbd_conf.c ****   hpcd_USB_OTG_HS.Init.dma_enable = DISABLE;
 735              		.loc 1 363 30 is_stmt 0 view .LVU165
 736 001e 0221     		movs	r1, #2
 737 0020 1961     		str	r1, [r3, #16]
 364:USB_DEVICE/Target/usbd_conf.c ****   hpcd_USB_OTG_HS.Init.phy_itface = USB_OTG_EMBEDDED_PHY;
 738              		.loc 1 364 3 is_stmt 1 view .LVU166
 364:USB_DEVICE/Target/usbd_conf.c ****   hpcd_USB_OTG_HS.Init.phy_itface = USB_OTG_EMBEDDED_PHY;
 739              		.loc 1 364 35 is_stmt 0 view .LVU167
 740 0022 0022     		movs	r2, #0
 741 0024 DA60     		str	r2, [r3, #12]
 365:USB_DEVICE/Target/usbd_conf.c ****   hpcd_USB_OTG_HS.Init.Sof_enable = DISABLE;
 742              		.loc 1 365 3 is_stmt 1 view .LVU168
 365:USB_DEVICE/Target/usbd_conf.c ****   hpcd_USB_OTG_HS.Init.Sof_enable = DISABLE;
 743              		.loc 1 365 35 is_stmt 0 view .LVU169
 744 0026 9961     		str	r1, [r3, #24]
 366:USB_DEVICE/Target/usbd_conf.c ****   hpcd_USB_OTG_HS.Init.low_power_enable = DISABLE;
 745              		.loc 1 366 3 is_stmt 1 view .LVU170
 366:USB_DEVICE/Target/usbd_conf.c ****   hpcd_USB_OTG_HS.Init.low_power_enable = DISABLE;
 746              		.loc 1 366 35 is_stmt 0 view .LVU171
 747 0028 DA61     		str	r2, [r3, #28]
 367:USB_DEVICE/Target/usbd_conf.c ****   hpcd_USB_OTG_HS.Init.lpm_enable = DISABLE;
 748              		.loc 1 367 3 is_stmt 1 view .LVU172
 367:USB_DEVICE/Target/usbd_conf.c ****   hpcd_USB_OTG_HS.Init.lpm_enable = DISABLE;
 749              		.loc 1 367 41 is_stmt 0 view .LVU173
ARM GAS  /tmp/ccpuhKFW.s 			page 22


 750 002a 1A62     		str	r2, [r3, #32]
 368:USB_DEVICE/Target/usbd_conf.c ****   hpcd_USB_OTG_HS.Init.vbus_sensing_enable = ENABLE;
 751              		.loc 1 368 3 is_stmt 1 view .LVU174
 368:USB_DEVICE/Target/usbd_conf.c ****   hpcd_USB_OTG_HS.Init.vbus_sensing_enable = ENABLE;
 752              		.loc 1 368 35 is_stmt 0 view .LVU175
 753 002c 5A62     		str	r2, [r3, #36]
 369:USB_DEVICE/Target/usbd_conf.c ****   hpcd_USB_OTG_HS.Init.use_dedicated_ep1 = DISABLE;
 754              		.loc 1 369 3 is_stmt 1 view .LVU176
 369:USB_DEVICE/Target/usbd_conf.c ****   hpcd_USB_OTG_HS.Init.use_dedicated_ep1 = DISABLE;
 755              		.loc 1 369 44 is_stmt 0 view .LVU177
 756 002e 0121     		movs	r1, #1
 757 0030 D962     		str	r1, [r3, #44]
 370:USB_DEVICE/Target/usbd_conf.c ****   hpcd_USB_OTG_HS.Init.use_external_vbus = DISABLE;
 758              		.loc 1 370 3 is_stmt 1 view .LVU178
 370:USB_DEVICE/Target/usbd_conf.c ****   hpcd_USB_OTG_HS.Init.use_external_vbus = DISABLE;
 759              		.loc 1 370 42 is_stmt 0 view .LVU179
 760 0032 1A63     		str	r2, [r3, #48]
 371:USB_DEVICE/Target/usbd_conf.c ****   if (HAL_PCD_Init(&hpcd_USB_OTG_HS) != HAL_OK)
 761              		.loc 1 371 3 is_stmt 1 view .LVU180
 371:USB_DEVICE/Target/usbd_conf.c ****   if (HAL_PCD_Init(&hpcd_USB_OTG_HS) != HAL_OK)
 762              		.loc 1 371 42 is_stmt 0 view .LVU181
 763 0034 5A63     		str	r2, [r3, #52]
 372:USB_DEVICE/Target/usbd_conf.c ****   {
 764              		.loc 1 372 3 is_stmt 1 view .LVU182
 372:USB_DEVICE/Target/usbd_conf.c ****   {
 765              		.loc 1 372 7 is_stmt 0 view .LVU183
 766 0036 1846     		mov	r0, r3
 767              	.LVL62:
 372:USB_DEVICE/Target/usbd_conf.c ****   {
 768              		.loc 1 372 7 view .LVU184
 769 0038 FFF7FEFF 		bl	HAL_PCD_Init
 770              	.LVL63:
 372:USB_DEVICE/Target/usbd_conf.c ****   {
 771              		.loc 1 372 6 view .LVU185
 772 003c 90B9     		cbnz	r0, .L52
 773              	.L46:
 393:USB_DEVICE/Target/usbd_conf.c ****   HAL_PCDEx_SetTxFiFo(&hpcd_USB_OTG_HS, 0, 0x80);
 774              		.loc 1 393 3 is_stmt 1 view .LVU186
 775 003e 0B4C     		ldr	r4, .L53
 776 0040 4FF40071 		mov	r1, #512
 777 0044 2046     		mov	r0, r4
 778 0046 FFF7FEFF 		bl	HAL_PCDEx_SetRxFiFo
 779              	.LVL64:
 394:USB_DEVICE/Target/usbd_conf.c ****   HAL_PCDEx_SetTxFiFo(&hpcd_USB_OTG_HS, 1, 0x174);
 780              		.loc 1 394 3 view .LVU187
 781 004a 8022     		movs	r2, #128
 782 004c 0021     		movs	r1, #0
 783 004e 2046     		mov	r0, r4
 784 0050 FFF7FEFF 		bl	HAL_PCDEx_SetTxFiFo
 785              	.LVL65:
 395:USB_DEVICE/Target/usbd_conf.c ****   /* USER CODE END TxRx_HS_Configuration */
 786              		.loc 1 395 3 view .LVU188
 787 0054 4FF4BA72 		mov	r2, #372
 788 0058 0121     		movs	r1, #1
 789 005a 2046     		mov	r0, r4
 790 005c FFF7FEFF 		bl	HAL_PCDEx_SetTxFiFo
 791              	.LVL66:
ARM GAS  /tmp/ccpuhKFW.s 			page 23


 398:USB_DEVICE/Target/usbd_conf.c **** }
 792              		.loc 1 398 3 view .LVU189
 793              		.loc 1 399 1 is_stmt 0 view .LVU190
 794 0060 0020     		movs	r0, #0
 795 0062 10BD     		pop	{r4, pc}
 796              	.L52:
 374:USB_DEVICE/Target/usbd_conf.c ****   }
 797              		.loc 1 374 5 is_stmt 1 view .LVU191
 798 0064 FFF7FEFF 		bl	Error_Handler
 799              	.LVL67:
 800 0068 E9E7     		b	.L46
 801              	.L54:
 802 006a 00BF     		.align	2
 803              	.L53:
 804 006c 00000000 		.word	hpcd_USB_OTG_HS
 805 0070 00000440 		.word	1074003968
 806              		.cfi_endproc
 807              	.LFE161:
 809              		.section	.text.USBD_LL_IsStallEP,"ax",%progbits
 810              		.align	1
 811              		.global	USBD_LL_IsStallEP
 812              		.syntax unified
 813              		.thumb
 814              		.thumb_func
 816              	USBD_LL_IsStallEP:
 817              	.LVL68:
 818              	.LFB170:
 400:USB_DEVICE/Target/usbd_conf.c **** 
 401:USB_DEVICE/Target/usbd_conf.c **** /**
 402:USB_DEVICE/Target/usbd_conf.c ****   * @brief  De-Initializes the low level portion of the device driver.
 403:USB_DEVICE/Target/usbd_conf.c ****   * @param  pdev: Device handle
 404:USB_DEVICE/Target/usbd_conf.c ****   * @retval USBD status
 405:USB_DEVICE/Target/usbd_conf.c ****   */
 406:USB_DEVICE/Target/usbd_conf.c **** USBD_StatusTypeDef USBD_LL_DeInit(USBD_HandleTypeDef *pdev)
 407:USB_DEVICE/Target/usbd_conf.c **** {
 408:USB_DEVICE/Target/usbd_conf.c ****   HAL_StatusTypeDef hal_status = HAL_OK;
 409:USB_DEVICE/Target/usbd_conf.c ****   USBD_StatusTypeDef usb_status = USBD_OK;
 410:USB_DEVICE/Target/usbd_conf.c **** 
 411:USB_DEVICE/Target/usbd_conf.c ****   hal_status = HAL_PCD_DeInit(pdev->pData);
 412:USB_DEVICE/Target/usbd_conf.c **** 
 413:USB_DEVICE/Target/usbd_conf.c ****   usb_status =  USBD_Get_USB_Status(hal_status);
 414:USB_DEVICE/Target/usbd_conf.c **** 
 415:USB_DEVICE/Target/usbd_conf.c ****   return usb_status;
 416:USB_DEVICE/Target/usbd_conf.c **** }
 417:USB_DEVICE/Target/usbd_conf.c **** 
 418:USB_DEVICE/Target/usbd_conf.c **** /**
 419:USB_DEVICE/Target/usbd_conf.c ****   * @brief  Starts the low level portion of the device driver.
 420:USB_DEVICE/Target/usbd_conf.c ****   * @param  pdev: Device handle
 421:USB_DEVICE/Target/usbd_conf.c ****   * @retval USBD status
 422:USB_DEVICE/Target/usbd_conf.c ****   */
 423:USB_DEVICE/Target/usbd_conf.c **** USBD_StatusTypeDef USBD_LL_Start(USBD_HandleTypeDef *pdev)
 424:USB_DEVICE/Target/usbd_conf.c **** {
 425:USB_DEVICE/Target/usbd_conf.c ****   HAL_StatusTypeDef hal_status = HAL_OK;
 426:USB_DEVICE/Target/usbd_conf.c ****   USBD_StatusTypeDef usb_status = USBD_OK;
 427:USB_DEVICE/Target/usbd_conf.c **** 
 428:USB_DEVICE/Target/usbd_conf.c ****   hal_status = HAL_PCD_Start(pdev->pData);
 429:USB_DEVICE/Target/usbd_conf.c **** 
ARM GAS  /tmp/ccpuhKFW.s 			page 24


 430:USB_DEVICE/Target/usbd_conf.c ****   usb_status =  USBD_Get_USB_Status(hal_status);
 431:USB_DEVICE/Target/usbd_conf.c **** 
 432:USB_DEVICE/Target/usbd_conf.c ****   return usb_status;
 433:USB_DEVICE/Target/usbd_conf.c **** }
 434:USB_DEVICE/Target/usbd_conf.c **** 
 435:USB_DEVICE/Target/usbd_conf.c **** /**
 436:USB_DEVICE/Target/usbd_conf.c ****   * @brief  Stops the low level portion of the device driver.
 437:USB_DEVICE/Target/usbd_conf.c ****   * @param  pdev: Device handle
 438:USB_DEVICE/Target/usbd_conf.c ****   * @retval USBD status
 439:USB_DEVICE/Target/usbd_conf.c ****   */
 440:USB_DEVICE/Target/usbd_conf.c **** USBD_StatusTypeDef USBD_LL_Stop(USBD_HandleTypeDef *pdev)
 441:USB_DEVICE/Target/usbd_conf.c **** {
 442:USB_DEVICE/Target/usbd_conf.c ****   HAL_StatusTypeDef hal_status = HAL_OK;
 443:USB_DEVICE/Target/usbd_conf.c ****   USBD_StatusTypeDef usb_status = USBD_OK;
 444:USB_DEVICE/Target/usbd_conf.c **** 
 445:USB_DEVICE/Target/usbd_conf.c ****   hal_status = HAL_PCD_Stop(pdev->pData);
 446:USB_DEVICE/Target/usbd_conf.c **** 
 447:USB_DEVICE/Target/usbd_conf.c ****   usb_status =  USBD_Get_USB_Status(hal_status);
 448:USB_DEVICE/Target/usbd_conf.c **** 
 449:USB_DEVICE/Target/usbd_conf.c ****   return usb_status;
 450:USB_DEVICE/Target/usbd_conf.c **** }
 451:USB_DEVICE/Target/usbd_conf.c **** 
 452:USB_DEVICE/Target/usbd_conf.c **** /**
 453:USB_DEVICE/Target/usbd_conf.c ****   * @brief  Opens an endpoint of the low level driver.
 454:USB_DEVICE/Target/usbd_conf.c ****   * @param  pdev: Device handle
 455:USB_DEVICE/Target/usbd_conf.c ****   * @param  ep_addr: Endpoint number
 456:USB_DEVICE/Target/usbd_conf.c ****   * @param  ep_type: Endpoint type
 457:USB_DEVICE/Target/usbd_conf.c ****   * @param  ep_mps: Endpoint max packet size
 458:USB_DEVICE/Target/usbd_conf.c ****   * @retval USBD status
 459:USB_DEVICE/Target/usbd_conf.c ****   */
 460:USB_DEVICE/Target/usbd_conf.c **** USBD_StatusTypeDef USBD_LL_OpenEP(USBD_HandleTypeDef *pdev, uint8_t ep_addr, uint8_t ep_type, uint1
 461:USB_DEVICE/Target/usbd_conf.c **** {
 462:USB_DEVICE/Target/usbd_conf.c ****   HAL_StatusTypeDef hal_status = HAL_OK;
 463:USB_DEVICE/Target/usbd_conf.c ****   USBD_StatusTypeDef usb_status = USBD_OK;
 464:USB_DEVICE/Target/usbd_conf.c **** 
 465:USB_DEVICE/Target/usbd_conf.c ****   hal_status = HAL_PCD_EP_Open(pdev->pData, ep_addr, ep_mps, ep_type);
 466:USB_DEVICE/Target/usbd_conf.c **** 
 467:USB_DEVICE/Target/usbd_conf.c ****   usb_status =  USBD_Get_USB_Status(hal_status);
 468:USB_DEVICE/Target/usbd_conf.c **** 
 469:USB_DEVICE/Target/usbd_conf.c ****   return usb_status;
 470:USB_DEVICE/Target/usbd_conf.c **** }
 471:USB_DEVICE/Target/usbd_conf.c **** 
 472:USB_DEVICE/Target/usbd_conf.c **** /**
 473:USB_DEVICE/Target/usbd_conf.c ****   * @brief  Closes an endpoint of the low level driver.
 474:USB_DEVICE/Target/usbd_conf.c ****   * @param  pdev: Device handle
 475:USB_DEVICE/Target/usbd_conf.c ****   * @param  ep_addr: Endpoint number
 476:USB_DEVICE/Target/usbd_conf.c ****   * @retval USBD status
 477:USB_DEVICE/Target/usbd_conf.c ****   */
 478:USB_DEVICE/Target/usbd_conf.c **** USBD_StatusTypeDef USBD_LL_CloseEP(USBD_HandleTypeDef *pdev, uint8_t ep_addr)
 479:USB_DEVICE/Target/usbd_conf.c **** {
 480:USB_DEVICE/Target/usbd_conf.c ****   HAL_StatusTypeDef hal_status = HAL_OK;
 481:USB_DEVICE/Target/usbd_conf.c ****   USBD_StatusTypeDef usb_status = USBD_OK;
 482:USB_DEVICE/Target/usbd_conf.c **** 
 483:USB_DEVICE/Target/usbd_conf.c ****   hal_status = HAL_PCD_EP_Close(pdev->pData, ep_addr);
 484:USB_DEVICE/Target/usbd_conf.c **** 
 485:USB_DEVICE/Target/usbd_conf.c ****   usb_status =  USBD_Get_USB_Status(hal_status);
 486:USB_DEVICE/Target/usbd_conf.c **** 
ARM GAS  /tmp/ccpuhKFW.s 			page 25


 487:USB_DEVICE/Target/usbd_conf.c ****   return usb_status;
 488:USB_DEVICE/Target/usbd_conf.c **** }
 489:USB_DEVICE/Target/usbd_conf.c **** 
 490:USB_DEVICE/Target/usbd_conf.c **** /**
 491:USB_DEVICE/Target/usbd_conf.c ****   * @brief  Flushes an endpoint of the Low Level Driver.
 492:USB_DEVICE/Target/usbd_conf.c ****   * @param  pdev: Device handle
 493:USB_DEVICE/Target/usbd_conf.c ****   * @param  ep_addr: Endpoint number
 494:USB_DEVICE/Target/usbd_conf.c ****   * @retval USBD status
 495:USB_DEVICE/Target/usbd_conf.c ****   */
 496:USB_DEVICE/Target/usbd_conf.c **** USBD_StatusTypeDef USBD_LL_FlushEP(USBD_HandleTypeDef *pdev, uint8_t ep_addr)
 497:USB_DEVICE/Target/usbd_conf.c **** {
 498:USB_DEVICE/Target/usbd_conf.c ****   HAL_StatusTypeDef hal_status = HAL_OK;
 499:USB_DEVICE/Target/usbd_conf.c ****   USBD_StatusTypeDef usb_status = USBD_OK;
 500:USB_DEVICE/Target/usbd_conf.c **** 
 501:USB_DEVICE/Target/usbd_conf.c ****   hal_status = HAL_PCD_EP_Flush(pdev->pData, ep_addr);
 502:USB_DEVICE/Target/usbd_conf.c **** 
 503:USB_DEVICE/Target/usbd_conf.c ****   usb_status =  USBD_Get_USB_Status(hal_status);
 504:USB_DEVICE/Target/usbd_conf.c **** 
 505:USB_DEVICE/Target/usbd_conf.c ****   return usb_status;
 506:USB_DEVICE/Target/usbd_conf.c **** }
 507:USB_DEVICE/Target/usbd_conf.c **** 
 508:USB_DEVICE/Target/usbd_conf.c **** /**
 509:USB_DEVICE/Target/usbd_conf.c ****   * @brief  Sets a Stall condition on an endpoint of the Low Level Driver.
 510:USB_DEVICE/Target/usbd_conf.c ****   * @param  pdev: Device handle
 511:USB_DEVICE/Target/usbd_conf.c ****   * @param  ep_addr: Endpoint number
 512:USB_DEVICE/Target/usbd_conf.c ****   * @retval USBD status
 513:USB_DEVICE/Target/usbd_conf.c ****   */
 514:USB_DEVICE/Target/usbd_conf.c **** USBD_StatusTypeDef USBD_LL_StallEP(USBD_HandleTypeDef *pdev, uint8_t ep_addr)
 515:USB_DEVICE/Target/usbd_conf.c **** {
 516:USB_DEVICE/Target/usbd_conf.c ****   HAL_StatusTypeDef hal_status = HAL_OK;
 517:USB_DEVICE/Target/usbd_conf.c ****   USBD_StatusTypeDef usb_status = USBD_OK;
 518:USB_DEVICE/Target/usbd_conf.c **** 
 519:USB_DEVICE/Target/usbd_conf.c ****   hal_status = HAL_PCD_EP_SetStall(pdev->pData, ep_addr);
 520:USB_DEVICE/Target/usbd_conf.c **** 
 521:USB_DEVICE/Target/usbd_conf.c ****   usb_status =  USBD_Get_USB_Status(hal_status);
 522:USB_DEVICE/Target/usbd_conf.c **** 
 523:USB_DEVICE/Target/usbd_conf.c ****   return usb_status;
 524:USB_DEVICE/Target/usbd_conf.c **** }
 525:USB_DEVICE/Target/usbd_conf.c **** 
 526:USB_DEVICE/Target/usbd_conf.c **** /**
 527:USB_DEVICE/Target/usbd_conf.c ****   * @brief  Clears a Stall condition on an endpoint of the Low Level Driver.
 528:USB_DEVICE/Target/usbd_conf.c ****   * @param  pdev: Device handle
 529:USB_DEVICE/Target/usbd_conf.c ****   * @param  ep_addr: Endpoint number
 530:USB_DEVICE/Target/usbd_conf.c ****   * @retval USBD status
 531:USB_DEVICE/Target/usbd_conf.c ****   */
 532:USB_DEVICE/Target/usbd_conf.c **** USBD_StatusTypeDef USBD_LL_ClearStallEP(USBD_HandleTypeDef *pdev, uint8_t ep_addr)
 533:USB_DEVICE/Target/usbd_conf.c **** {
 534:USB_DEVICE/Target/usbd_conf.c ****   HAL_StatusTypeDef hal_status = HAL_OK;
 535:USB_DEVICE/Target/usbd_conf.c ****   USBD_StatusTypeDef usb_status = USBD_OK;
 536:USB_DEVICE/Target/usbd_conf.c **** 
 537:USB_DEVICE/Target/usbd_conf.c ****   hal_status = HAL_PCD_EP_ClrStall(pdev->pData, ep_addr);
 538:USB_DEVICE/Target/usbd_conf.c **** 
 539:USB_DEVICE/Target/usbd_conf.c ****   usb_status =  USBD_Get_USB_Status(hal_status);
 540:USB_DEVICE/Target/usbd_conf.c **** 
 541:USB_DEVICE/Target/usbd_conf.c ****   return usb_status;
 542:USB_DEVICE/Target/usbd_conf.c **** }
 543:USB_DEVICE/Target/usbd_conf.c **** 
ARM GAS  /tmp/ccpuhKFW.s 			page 26


 544:USB_DEVICE/Target/usbd_conf.c **** /**
 545:USB_DEVICE/Target/usbd_conf.c ****   * @brief  Returns Stall condition.
 546:USB_DEVICE/Target/usbd_conf.c ****   * @param  pdev: Device handle
 547:USB_DEVICE/Target/usbd_conf.c ****   * @param  ep_addr: Endpoint number
 548:USB_DEVICE/Target/usbd_conf.c ****   * @retval Stall (1: Yes, 0: No)
 549:USB_DEVICE/Target/usbd_conf.c ****   */
 550:USB_DEVICE/Target/usbd_conf.c **** uint8_t USBD_LL_IsStallEP(USBD_HandleTypeDef *pdev, uint8_t ep_addr)
 551:USB_DEVICE/Target/usbd_conf.c **** {
 819              		.loc 1 551 1 view -0
 820              		.cfi_startproc
 821              		@ args = 0, pretend = 0, frame = 0
 822              		@ frame_needed = 0, uses_anonymous_args = 0
 823              		@ link register save eliminated.
 552:USB_DEVICE/Target/usbd_conf.c ****   PCD_HandleTypeDef *hpcd = (PCD_HandleTypeDef*) pdev->pData;
 824              		.loc 1 552 3 view .LVU193
 825              		.loc 1 552 22 is_stmt 0 view .LVU194
 826 0000 D0F8C832 		ldr	r3, [r0, #712]
 827              	.LVL69:
 553:USB_DEVICE/Target/usbd_conf.c **** 
 554:USB_DEVICE/Target/usbd_conf.c ****   if((ep_addr & 0x80) == 0x80)
 828              		.loc 1 554 3 is_stmt 1 view .LVU195
 829              		.loc 1 554 5 is_stmt 0 view .LVU196
 830 0004 11F0800F 		tst	r1, #128
 831 0008 08D1     		bne	.L58
 555:USB_DEVICE/Target/usbd_conf.c ****   {
 556:USB_DEVICE/Target/usbd_conf.c ****     return hpcd->IN_ep[ep_addr & 0x7F].is_stall;
 557:USB_DEVICE/Target/usbd_conf.c ****   }
 558:USB_DEVICE/Target/usbd_conf.c ****   else
 559:USB_DEVICE/Target/usbd_conf.c ****   {
 560:USB_DEVICE/Target/usbd_conf.c ****     return hpcd->OUT_ep[ep_addr & 0x7F].is_stall;
 832              		.loc 1 560 5 is_stmt 1 view .LVU197
 833              		.loc 1 560 33 is_stmt 0 view .LVU198
 834 000a 01F07F01 		and	r1, r1, #127
 835              	.LVL70:
 836              		.loc 1 560 40 view .LVU199
 837 000e 01EBC101 		add	r1, r1, r1, lsl #3
 838 0012 03EB8103 		add	r3, r3, r1, lsl #2
 839              	.LVL71:
 840              		.loc 1 560 40 view .LVU200
 841 0016 93F87E02 		ldrb	r0, [r3, #638]	@ zero_extendqisi2
 842              	.LVL72:
 561:USB_DEVICE/Target/usbd_conf.c ****   }
 562:USB_DEVICE/Target/usbd_conf.c **** }
 843              		.loc 1 562 1 view .LVU201
 844 001a 7047     		bx	lr
 845              	.LVL73:
 846              	.L58:
 556:USB_DEVICE/Target/usbd_conf.c ****   }
 847              		.loc 1 556 5 is_stmt 1 view .LVU202
 556:USB_DEVICE/Target/usbd_conf.c ****   }
 848              		.loc 1 556 32 is_stmt 0 view .LVU203
 849 001c 01F07F01 		and	r1, r1, #127
 850              	.LVL74:
 556:USB_DEVICE/Target/usbd_conf.c ****   }
 851              		.loc 1 556 39 view .LVU204
 852 0020 01EBC101 		add	r1, r1, r1, lsl #3
 853 0024 03EB8103 		add	r3, r3, r1, lsl #2
ARM GAS  /tmp/ccpuhKFW.s 			page 27


 854              	.LVL75:
 556:USB_DEVICE/Target/usbd_conf.c ****   }
 855              		.loc 1 556 39 view .LVU205
 856 0028 93F83E00 		ldrb	r0, [r3, #62]	@ zero_extendqisi2
 857              	.LVL76:
 556:USB_DEVICE/Target/usbd_conf.c ****   }
 858              		.loc 1 556 39 view .LVU206
 859 002c 7047     		bx	lr
 860              		.cfi_endproc
 861              	.LFE170:
 863              		.section	.text.USBD_LL_GetRxDataSize,"ax",%progbits
 864              		.align	1
 865              		.global	USBD_LL_GetRxDataSize
 866              		.syntax unified
 867              		.thumb
 868              		.thumb_func
 870              	USBD_LL_GetRxDataSize:
 871              	.LVL77:
 872              	.LFB174:
 563:USB_DEVICE/Target/usbd_conf.c **** 
 564:USB_DEVICE/Target/usbd_conf.c **** /**
 565:USB_DEVICE/Target/usbd_conf.c ****   * @brief  Assigns a USB address to the device.
 566:USB_DEVICE/Target/usbd_conf.c ****   * @param  pdev: Device handle
 567:USB_DEVICE/Target/usbd_conf.c ****   * @param  dev_addr: Device address
 568:USB_DEVICE/Target/usbd_conf.c ****   * @retval USBD status
 569:USB_DEVICE/Target/usbd_conf.c ****   */
 570:USB_DEVICE/Target/usbd_conf.c **** USBD_StatusTypeDef USBD_LL_SetUSBAddress(USBD_HandleTypeDef *pdev, uint8_t dev_addr)
 571:USB_DEVICE/Target/usbd_conf.c **** {
 572:USB_DEVICE/Target/usbd_conf.c ****   HAL_StatusTypeDef hal_status = HAL_OK;
 573:USB_DEVICE/Target/usbd_conf.c ****   USBD_StatusTypeDef usb_status = USBD_OK;
 574:USB_DEVICE/Target/usbd_conf.c **** 
 575:USB_DEVICE/Target/usbd_conf.c ****   hal_status = HAL_PCD_SetAddress(pdev->pData, dev_addr);
 576:USB_DEVICE/Target/usbd_conf.c **** 
 577:USB_DEVICE/Target/usbd_conf.c ****   usb_status =  USBD_Get_USB_Status(hal_status);
 578:USB_DEVICE/Target/usbd_conf.c **** 
 579:USB_DEVICE/Target/usbd_conf.c ****   return usb_status;
 580:USB_DEVICE/Target/usbd_conf.c **** }
 581:USB_DEVICE/Target/usbd_conf.c **** 
 582:USB_DEVICE/Target/usbd_conf.c **** /**
 583:USB_DEVICE/Target/usbd_conf.c ****   * @brief  Transmits data over an endpoint.
 584:USB_DEVICE/Target/usbd_conf.c ****   * @param  pdev: Device handle
 585:USB_DEVICE/Target/usbd_conf.c ****   * @param  ep_addr: Endpoint number
 586:USB_DEVICE/Target/usbd_conf.c ****   * @param  pbuf: Pointer to data to be sent
 587:USB_DEVICE/Target/usbd_conf.c ****   * @param  size: Data size
 588:USB_DEVICE/Target/usbd_conf.c ****   * @retval USBD status
 589:USB_DEVICE/Target/usbd_conf.c ****   */
 590:USB_DEVICE/Target/usbd_conf.c **** USBD_StatusTypeDef USBD_LL_Transmit(USBD_HandleTypeDef *pdev, uint8_t ep_addr, uint8_t *pbuf, uint3
 591:USB_DEVICE/Target/usbd_conf.c **** {
 592:USB_DEVICE/Target/usbd_conf.c ****   HAL_StatusTypeDef hal_status = HAL_OK;
 593:USB_DEVICE/Target/usbd_conf.c ****   USBD_StatusTypeDef usb_status = USBD_OK;
 594:USB_DEVICE/Target/usbd_conf.c **** 
 595:USB_DEVICE/Target/usbd_conf.c ****   hal_status = HAL_PCD_EP_Transmit(pdev->pData, ep_addr, pbuf, size);
 596:USB_DEVICE/Target/usbd_conf.c **** 
 597:USB_DEVICE/Target/usbd_conf.c ****   usb_status =  USBD_Get_USB_Status(hal_status);
 598:USB_DEVICE/Target/usbd_conf.c **** 
 599:USB_DEVICE/Target/usbd_conf.c ****   return usb_status;
 600:USB_DEVICE/Target/usbd_conf.c **** }
ARM GAS  /tmp/ccpuhKFW.s 			page 28


 601:USB_DEVICE/Target/usbd_conf.c **** 
 602:USB_DEVICE/Target/usbd_conf.c **** /**
 603:USB_DEVICE/Target/usbd_conf.c ****   * @brief  Prepares an endpoint for reception.
 604:USB_DEVICE/Target/usbd_conf.c ****   * @param  pdev: Device handle
 605:USB_DEVICE/Target/usbd_conf.c ****   * @param  ep_addr: Endpoint number
 606:USB_DEVICE/Target/usbd_conf.c ****   * @param  pbuf: Pointer to data to be received
 607:USB_DEVICE/Target/usbd_conf.c ****   * @param  size: Data size
 608:USB_DEVICE/Target/usbd_conf.c ****   * @retval USBD status
 609:USB_DEVICE/Target/usbd_conf.c ****   */
 610:USB_DEVICE/Target/usbd_conf.c **** USBD_StatusTypeDef USBD_LL_PrepareReceive(USBD_HandleTypeDef *pdev, uint8_t ep_addr, uint8_t *pbuf,
 611:USB_DEVICE/Target/usbd_conf.c **** {
 612:USB_DEVICE/Target/usbd_conf.c ****   HAL_StatusTypeDef hal_status = HAL_OK;
 613:USB_DEVICE/Target/usbd_conf.c ****   USBD_StatusTypeDef usb_status = USBD_OK;
 614:USB_DEVICE/Target/usbd_conf.c **** 
 615:USB_DEVICE/Target/usbd_conf.c ****   hal_status = HAL_PCD_EP_Receive(pdev->pData, ep_addr, pbuf, size);
 616:USB_DEVICE/Target/usbd_conf.c **** 
 617:USB_DEVICE/Target/usbd_conf.c ****   usb_status =  USBD_Get_USB_Status(hal_status);
 618:USB_DEVICE/Target/usbd_conf.c **** 
 619:USB_DEVICE/Target/usbd_conf.c ****   return usb_status;
 620:USB_DEVICE/Target/usbd_conf.c **** }
 621:USB_DEVICE/Target/usbd_conf.c **** 
 622:USB_DEVICE/Target/usbd_conf.c **** /**
 623:USB_DEVICE/Target/usbd_conf.c ****   * @brief  Returns the last transferred packet size.
 624:USB_DEVICE/Target/usbd_conf.c ****   * @param  pdev: Device handle
 625:USB_DEVICE/Target/usbd_conf.c ****   * @param  ep_addr: Endpoint number
 626:USB_DEVICE/Target/usbd_conf.c ****   * @retval Received Data Size
 627:USB_DEVICE/Target/usbd_conf.c ****   */
 628:USB_DEVICE/Target/usbd_conf.c **** uint32_t USBD_LL_GetRxDataSize(USBD_HandleTypeDef *pdev, uint8_t ep_addr)
 629:USB_DEVICE/Target/usbd_conf.c **** {
 873              		.loc 1 629 1 is_stmt 1 view -0
 874              		.cfi_startproc
 875              		@ args = 0, pretend = 0, frame = 0
 876              		@ frame_needed = 0, uses_anonymous_args = 0
 877              		.loc 1 629 1 is_stmt 0 view .LVU208
 878 0000 08B5     		push	{r3, lr}
 879              	.LCFI17:
 880              		.cfi_def_cfa_offset 8
 881              		.cfi_offset 3, -8
 882              		.cfi_offset 14, -4
 630:USB_DEVICE/Target/usbd_conf.c ****   return HAL_PCD_EP_GetRxCount((PCD_HandleTypeDef*) pdev->pData, ep_addr);
 883              		.loc 1 630 3 is_stmt 1 view .LVU209
 884              		.loc 1 630 10 is_stmt 0 view .LVU210
 885 0002 D0F8C802 		ldr	r0, [r0, #712]
 886              	.LVL78:
 887              		.loc 1 630 10 view .LVU211
 888 0006 FFF7FEFF 		bl	HAL_PCD_EP_GetRxCount
 889              	.LVL79:
 631:USB_DEVICE/Target/usbd_conf.c **** }
 890              		.loc 1 631 1 view .LVU212
 891 000a 08BD     		pop	{r3, pc}
 892              		.cfi_endproc
 893              	.LFE174:
 895              		.section	.text.USBD_static_malloc,"ax",%progbits
 896              		.align	1
 897              		.global	USBD_static_malloc
 898              		.syntax unified
 899              		.thumb
ARM GAS  /tmp/ccpuhKFW.s 			page 29


 900              		.thumb_func
 902              	USBD_static_malloc:
 903              	.LVL80:
 904              	.LFB175:
 632:USB_DEVICE/Target/usbd_conf.c **** 
 633:USB_DEVICE/Target/usbd_conf.c **** #ifdef USBD_HS_TESTMODE_ENABLE
 634:USB_DEVICE/Target/usbd_conf.c **** /**
 635:USB_DEVICE/Target/usbd_conf.c ****   * @brief  Set High speed Test mode.
 636:USB_DEVICE/Target/usbd_conf.c ****   * @param  pdev: Device handle
 637:USB_DEVICE/Target/usbd_conf.c ****   * @param  testmode: test mode
 638:USB_DEVICE/Target/usbd_conf.c ****   * @retval USBD Status
 639:USB_DEVICE/Target/usbd_conf.c ****   */
 640:USB_DEVICE/Target/usbd_conf.c **** USBD_StatusTypeDef USBD_LL_SetTestMode(USBD_HandleTypeDef *pdev, uint8_t testmode)
 641:USB_DEVICE/Target/usbd_conf.c **** {
 642:USB_DEVICE/Target/usbd_conf.c ****   UNUSED(pdev);
 643:USB_DEVICE/Target/usbd_conf.c ****   UNUSED(testmode);
 644:USB_DEVICE/Target/usbd_conf.c **** 
 645:USB_DEVICE/Target/usbd_conf.c ****   return USBD_OK;
 646:USB_DEVICE/Target/usbd_conf.c **** }
 647:USB_DEVICE/Target/usbd_conf.c **** #endif /* USBD_HS_TESTMODE_ENABLE */
 648:USB_DEVICE/Target/usbd_conf.c **** /**
 649:USB_DEVICE/Target/usbd_conf.c ****   * @brief  Static single allocation.
 650:USB_DEVICE/Target/usbd_conf.c ****   * @param  size: Size of allocated memory
 651:USB_DEVICE/Target/usbd_conf.c ****   * @retval None
 652:USB_DEVICE/Target/usbd_conf.c ****   */
 653:USB_DEVICE/Target/usbd_conf.c **** void *USBD_static_malloc(uint32_t size)
 654:USB_DEVICE/Target/usbd_conf.c **** {
 905              		.loc 1 654 1 is_stmt 1 view -0
 906              		.cfi_startproc
 907              		@ args = 0, pretend = 0, frame = 0
 908              		@ frame_needed = 0, uses_anonymous_args = 0
 909              		@ link register save eliminated.
 655:USB_DEVICE/Target/usbd_conf.c ****   UNUSED(size);
 910              		.loc 1 655 3 view .LVU214
 656:USB_DEVICE/Target/usbd_conf.c ****   static uint32_t mem[(sizeof(USBD_CDC_HandleTypeDef)/4)+1];/* On 32-bit boundary */
 911              		.loc 1 656 3 view .LVU215
 657:USB_DEVICE/Target/usbd_conf.c ****   return mem;
 912              		.loc 1 657 3 view .LVU216
 658:USB_DEVICE/Target/usbd_conf.c **** }
 913              		.loc 1 658 1 is_stmt 0 view .LVU217
 914 0000 0048     		ldr	r0, .L62
 915              	.LVL81:
 916              		.loc 1 658 1 view .LVU218
 917 0002 7047     		bx	lr
 918              	.L63:
 919              		.align	2
 920              	.L62:
 921 0004 00000000 		.word	mem.0
 922              		.cfi_endproc
 923              	.LFE175:
 925              		.section	.text.USBD_static_free,"ax",%progbits
 926              		.align	1
 927              		.global	USBD_static_free
 928              		.syntax unified
 929              		.thumb
 930              		.thumb_func
 932              	USBD_static_free:
ARM GAS  /tmp/ccpuhKFW.s 			page 30


 933              	.LVL82:
 934              	.LFB176:
 659:USB_DEVICE/Target/usbd_conf.c **** 
 660:USB_DEVICE/Target/usbd_conf.c **** /**
 661:USB_DEVICE/Target/usbd_conf.c ****   * @brief  Dummy memory free
 662:USB_DEVICE/Target/usbd_conf.c ****   * @param  p: Pointer to allocated  memory address
 663:USB_DEVICE/Target/usbd_conf.c ****   * @retval None
 664:USB_DEVICE/Target/usbd_conf.c ****   */
 665:USB_DEVICE/Target/usbd_conf.c **** void USBD_static_free(void *p)
 666:USB_DEVICE/Target/usbd_conf.c **** {
 935              		.loc 1 666 1 is_stmt 1 view -0
 936              		.cfi_startproc
 937              		@ args = 0, pretend = 0, frame = 0
 938              		@ frame_needed = 0, uses_anonymous_args = 0
 939              		@ link register save eliminated.
 667:USB_DEVICE/Target/usbd_conf.c ****   UNUSED(p);
 940              		.loc 1 667 3 view .LVU220
 668:USB_DEVICE/Target/usbd_conf.c **** }
 941              		.loc 1 668 1 is_stmt 0 view .LVU221
 942 0000 7047     		bx	lr
 943              		.cfi_endproc
 944              	.LFE176:
 946              		.section	.text.USBD_LL_Delay,"ax",%progbits
 947              		.align	1
 948              		.global	USBD_LL_Delay
 949              		.syntax unified
 950              		.thumb
 951              		.thumb_func
 953              	USBD_LL_Delay:
 954              	.LVL83:
 955              	.LFB177:
 669:USB_DEVICE/Target/usbd_conf.c **** 
 670:USB_DEVICE/Target/usbd_conf.c **** /**
 671:USB_DEVICE/Target/usbd_conf.c ****   * @brief  Delays routine for the USB device library.
 672:USB_DEVICE/Target/usbd_conf.c ****   * @param  Delay: Delay in ms
 673:USB_DEVICE/Target/usbd_conf.c ****   * @retval None
 674:USB_DEVICE/Target/usbd_conf.c ****   */
 675:USB_DEVICE/Target/usbd_conf.c **** void USBD_LL_Delay(uint32_t Delay)
 676:USB_DEVICE/Target/usbd_conf.c **** {
 956              		.loc 1 676 1 is_stmt 1 view -0
 957              		.cfi_startproc
 958              		@ args = 0, pretend = 0, frame = 0
 959              		@ frame_needed = 0, uses_anonymous_args = 0
 960              		.loc 1 676 1 is_stmt 0 view .LVU223
 961 0000 08B5     		push	{r3, lr}
 962              	.LCFI18:
 963              		.cfi_def_cfa_offset 8
 964              		.cfi_offset 3, -8
 965              		.cfi_offset 14, -4
 677:USB_DEVICE/Target/usbd_conf.c ****   HAL_Delay(Delay);
 966              		.loc 1 677 3 is_stmt 1 view .LVU224
 967 0002 FFF7FEFF 		bl	HAL_Delay
 968              	.LVL84:
 678:USB_DEVICE/Target/usbd_conf.c **** }
 969              		.loc 1 678 1 is_stmt 0 view .LVU225
 970 0006 08BD     		pop	{r3, pc}
 971              		.cfi_endproc
ARM GAS  /tmp/ccpuhKFW.s 			page 31


 972              	.LFE177:
 974              		.section	.text.USBD_Get_USB_Status,"ax",%progbits
 975              		.align	1
 976              		.global	USBD_Get_USB_Status
 977              		.syntax unified
 978              		.thumb
 979              		.thumb_func
 981              	USBD_Get_USB_Status:
 982              	.LVL85:
 983              	.LFB178:
 679:USB_DEVICE/Target/usbd_conf.c **** 
 680:USB_DEVICE/Target/usbd_conf.c **** /**
 681:USB_DEVICE/Target/usbd_conf.c ****   * @brief  Returns the USB status depending on the HAL status:
 682:USB_DEVICE/Target/usbd_conf.c ****   * @param  hal_status: HAL status
 683:USB_DEVICE/Target/usbd_conf.c ****   * @retval USB status
 684:USB_DEVICE/Target/usbd_conf.c ****   */
 685:USB_DEVICE/Target/usbd_conf.c **** USBD_StatusTypeDef USBD_Get_USB_Status(HAL_StatusTypeDef hal_status)
 686:USB_DEVICE/Target/usbd_conf.c **** {
 984              		.loc 1 686 1 is_stmt 1 view -0
 985              		.cfi_startproc
 986              		@ args = 0, pretend = 0, frame = 0
 987              		@ frame_needed = 0, uses_anonymous_args = 0
 988              		@ link register save eliminated.
 687:USB_DEVICE/Target/usbd_conf.c ****   USBD_StatusTypeDef usb_status = USBD_OK;
 989              		.loc 1 687 3 view .LVU227
 688:USB_DEVICE/Target/usbd_conf.c **** 
 689:USB_DEVICE/Target/usbd_conf.c ****   switch (hal_status)
 990              		.loc 1 689 3 view .LVU228
 991 0000 0328     		cmp	r0, #3
 992 0002 05D8     		bhi	.L73
 993 0004 DFE800F0 		tbb	[pc, r0]
 994              	.L70:
 995 0008 05       		.byte	(.L68-.L70)/2
 996 0009 04       		.byte	(.L73-.L70)/2
 997 000a 02       		.byte	(.L71-.L70)/2
 998 000b 05       		.byte	(.L68-.L70)/2
 999              		.p2align 1
 1000              	.L71:
 690:USB_DEVICE/Target/usbd_conf.c ****   {
 691:USB_DEVICE/Target/usbd_conf.c ****     case HAL_OK :
 692:USB_DEVICE/Target/usbd_conf.c ****       usb_status = USBD_OK;
 693:USB_DEVICE/Target/usbd_conf.c ****     break;
 694:USB_DEVICE/Target/usbd_conf.c ****     case HAL_ERROR :
 695:USB_DEVICE/Target/usbd_conf.c ****       usb_status = USBD_FAIL;
 696:USB_DEVICE/Target/usbd_conf.c ****     break;
 697:USB_DEVICE/Target/usbd_conf.c ****     case HAL_BUSY :
 698:USB_DEVICE/Target/usbd_conf.c ****       usb_status = USBD_BUSY;
 1001              		.loc 1 698 7 view .LVU229
 1002              	.LVL86:
 699:USB_DEVICE/Target/usbd_conf.c ****     break;
 1003              		.loc 1 699 5 view .LVU230
 698:USB_DEVICE/Target/usbd_conf.c ****     break;
 1004              		.loc 1 698 18 is_stmt 0 view .LVU231
 1005 000c 0120     		movs	r0, #1
 1006              	.LVL87:
 1007              		.loc 1 699 5 view .LVU232
 1008 000e 7047     		bx	lr
ARM GAS  /tmp/ccpuhKFW.s 			page 32


 1009              	.LVL88:
 1010              	.L73:
 695:USB_DEVICE/Target/usbd_conf.c ****     break;
 1011              		.loc 1 695 18 view .LVU233
 1012 0010 0320     		movs	r0, #3
 1013              	.LVL89:
 1014              	.L68:
 700:USB_DEVICE/Target/usbd_conf.c ****     case HAL_TIMEOUT :
 701:USB_DEVICE/Target/usbd_conf.c ****       usb_status = USBD_FAIL;
 702:USB_DEVICE/Target/usbd_conf.c ****     break;
 703:USB_DEVICE/Target/usbd_conf.c ****     default :
 704:USB_DEVICE/Target/usbd_conf.c ****       usb_status = USBD_FAIL;
 705:USB_DEVICE/Target/usbd_conf.c ****     break;
 706:USB_DEVICE/Target/usbd_conf.c ****   }
 707:USB_DEVICE/Target/usbd_conf.c ****   return usb_status;
 1015              		.loc 1 707 3 is_stmt 1 view .LVU234
 708:USB_DEVICE/Target/usbd_conf.c **** }
 1016              		.loc 1 708 1 is_stmt 0 view .LVU235
 1017 0012 7047     		bx	lr
 1018              		.cfi_endproc
 1019              	.LFE178:
 1021              		.section	.text.USBD_LL_DeInit,"ax",%progbits
 1022              		.align	1
 1023              		.global	USBD_LL_DeInit
 1024              		.syntax unified
 1025              		.thumb
 1026              		.thumb_func
 1028              	USBD_LL_DeInit:
 1029              	.LVL90:
 1030              	.LFB162:
 407:USB_DEVICE/Target/usbd_conf.c ****   HAL_StatusTypeDef hal_status = HAL_OK;
 1031              		.loc 1 407 1 is_stmt 1 view -0
 1032              		.cfi_startproc
 1033              		@ args = 0, pretend = 0, frame = 0
 1034              		@ frame_needed = 0, uses_anonymous_args = 0
 407:USB_DEVICE/Target/usbd_conf.c ****   HAL_StatusTypeDef hal_status = HAL_OK;
 1035              		.loc 1 407 1 is_stmt 0 view .LVU237
 1036 0000 08B5     		push	{r3, lr}
 1037              	.LCFI19:
 1038              		.cfi_def_cfa_offset 8
 1039              		.cfi_offset 3, -8
 1040              		.cfi_offset 14, -4
 408:USB_DEVICE/Target/usbd_conf.c ****   USBD_StatusTypeDef usb_status = USBD_OK;
 1041              		.loc 1 408 3 is_stmt 1 view .LVU238
 1042              	.LVL91:
 409:USB_DEVICE/Target/usbd_conf.c **** 
 1043              		.loc 1 409 3 view .LVU239
 411:USB_DEVICE/Target/usbd_conf.c **** 
 1044              		.loc 1 411 3 view .LVU240
 411:USB_DEVICE/Target/usbd_conf.c **** 
 1045              		.loc 1 411 16 is_stmt 0 view .LVU241
 1046 0002 D0F8C802 		ldr	r0, [r0, #712]
 1047              	.LVL92:
 411:USB_DEVICE/Target/usbd_conf.c **** 
 1048              		.loc 1 411 16 view .LVU242
 1049 0006 FFF7FEFF 		bl	HAL_PCD_DeInit
 1050              	.LVL93:
ARM GAS  /tmp/ccpuhKFW.s 			page 33


 413:USB_DEVICE/Target/usbd_conf.c **** 
 1051              		.loc 1 413 3 is_stmt 1 view .LVU243
 413:USB_DEVICE/Target/usbd_conf.c **** 
 1052              		.loc 1 413 17 is_stmt 0 view .LVU244
 1053 000a FFF7FEFF 		bl	USBD_Get_USB_Status
 1054              	.LVL94:
 415:USB_DEVICE/Target/usbd_conf.c **** }
 1055              		.loc 1 415 3 is_stmt 1 view .LVU245
 416:USB_DEVICE/Target/usbd_conf.c **** 
 1056              		.loc 1 416 1 is_stmt 0 view .LVU246
 1057 000e 08BD     		pop	{r3, pc}
 1058              		.cfi_endproc
 1059              	.LFE162:
 1061              		.section	.text.USBD_LL_Start,"ax",%progbits
 1062              		.align	1
 1063              		.global	USBD_LL_Start
 1064              		.syntax unified
 1065              		.thumb
 1066              		.thumb_func
 1068              	USBD_LL_Start:
 1069              	.LVL95:
 1070              	.LFB163:
 424:USB_DEVICE/Target/usbd_conf.c ****   HAL_StatusTypeDef hal_status = HAL_OK;
 1071              		.loc 1 424 1 is_stmt 1 view -0
 1072              		.cfi_startproc
 1073              		@ args = 0, pretend = 0, frame = 0
 1074              		@ frame_needed = 0, uses_anonymous_args = 0
 424:USB_DEVICE/Target/usbd_conf.c ****   HAL_StatusTypeDef hal_status = HAL_OK;
 1075              		.loc 1 424 1 is_stmt 0 view .LVU248
 1076 0000 08B5     		push	{r3, lr}
 1077              	.LCFI20:
 1078              		.cfi_def_cfa_offset 8
 1079              		.cfi_offset 3, -8
 1080              		.cfi_offset 14, -4
 425:USB_DEVICE/Target/usbd_conf.c ****   USBD_StatusTypeDef usb_status = USBD_OK;
 1081              		.loc 1 425 3 is_stmt 1 view .LVU249
 1082              	.LVL96:
 426:USB_DEVICE/Target/usbd_conf.c **** 
 1083              		.loc 1 426 3 view .LVU250
 428:USB_DEVICE/Target/usbd_conf.c **** 
 1084              		.loc 1 428 3 view .LVU251
 428:USB_DEVICE/Target/usbd_conf.c **** 
 1085              		.loc 1 428 16 is_stmt 0 view .LVU252
 1086 0002 D0F8C802 		ldr	r0, [r0, #712]
 1087              	.LVL97:
 428:USB_DEVICE/Target/usbd_conf.c **** 
 1088              		.loc 1 428 16 view .LVU253
 1089 0006 FFF7FEFF 		bl	HAL_PCD_Start
 1090              	.LVL98:
 430:USB_DEVICE/Target/usbd_conf.c **** 
 1091              		.loc 1 430 3 is_stmt 1 view .LVU254
 430:USB_DEVICE/Target/usbd_conf.c **** 
 1092              		.loc 1 430 17 is_stmt 0 view .LVU255
 1093 000a FFF7FEFF 		bl	USBD_Get_USB_Status
 1094              	.LVL99:
 432:USB_DEVICE/Target/usbd_conf.c **** }
 1095              		.loc 1 432 3 is_stmt 1 view .LVU256
ARM GAS  /tmp/ccpuhKFW.s 			page 34


 433:USB_DEVICE/Target/usbd_conf.c **** 
 1096              		.loc 1 433 1 is_stmt 0 view .LVU257
 1097 000e 08BD     		pop	{r3, pc}
 1098              		.cfi_endproc
 1099              	.LFE163:
 1101              		.section	.text.USBD_LL_Stop,"ax",%progbits
 1102              		.align	1
 1103              		.global	USBD_LL_Stop
 1104              		.syntax unified
 1105              		.thumb
 1106              		.thumb_func
 1108              	USBD_LL_Stop:
 1109              	.LVL100:
 1110              	.LFB164:
 441:USB_DEVICE/Target/usbd_conf.c ****   HAL_StatusTypeDef hal_status = HAL_OK;
 1111              		.loc 1 441 1 is_stmt 1 view -0
 1112              		.cfi_startproc
 1113              		@ args = 0, pretend = 0, frame = 0
 1114              		@ frame_needed = 0, uses_anonymous_args = 0
 441:USB_DEVICE/Target/usbd_conf.c ****   HAL_StatusTypeDef hal_status = HAL_OK;
 1115              		.loc 1 441 1 is_stmt 0 view .LVU259
 1116 0000 08B5     		push	{r3, lr}
 1117              	.LCFI21:
 1118              		.cfi_def_cfa_offset 8
 1119              		.cfi_offset 3, -8
 1120              		.cfi_offset 14, -4
 442:USB_DEVICE/Target/usbd_conf.c ****   USBD_StatusTypeDef usb_status = USBD_OK;
 1121              		.loc 1 442 3 is_stmt 1 view .LVU260
 1122              	.LVL101:
 443:USB_DEVICE/Target/usbd_conf.c **** 
 1123              		.loc 1 443 3 view .LVU261
 445:USB_DEVICE/Target/usbd_conf.c **** 
 1124              		.loc 1 445 3 view .LVU262
 445:USB_DEVICE/Target/usbd_conf.c **** 
 1125              		.loc 1 445 16 is_stmt 0 view .LVU263
 1126 0002 D0F8C802 		ldr	r0, [r0, #712]
 1127              	.LVL102:
 445:USB_DEVICE/Target/usbd_conf.c **** 
 1128              		.loc 1 445 16 view .LVU264
 1129 0006 FFF7FEFF 		bl	HAL_PCD_Stop
 1130              	.LVL103:
 447:USB_DEVICE/Target/usbd_conf.c **** 
 1131              		.loc 1 447 3 is_stmt 1 view .LVU265
 447:USB_DEVICE/Target/usbd_conf.c **** 
 1132              		.loc 1 447 17 is_stmt 0 view .LVU266
 1133 000a FFF7FEFF 		bl	USBD_Get_USB_Status
 1134              	.LVL104:
 449:USB_DEVICE/Target/usbd_conf.c **** }
 1135              		.loc 1 449 3 is_stmt 1 view .LVU267
 450:USB_DEVICE/Target/usbd_conf.c **** 
 1136              		.loc 1 450 1 is_stmt 0 view .LVU268
 1137 000e 08BD     		pop	{r3, pc}
 1138              		.cfi_endproc
 1139              	.LFE164:
 1141              		.section	.text.USBD_LL_OpenEP,"ax",%progbits
 1142              		.align	1
 1143              		.global	USBD_LL_OpenEP
ARM GAS  /tmp/ccpuhKFW.s 			page 35


 1144              		.syntax unified
 1145              		.thumb
 1146              		.thumb_func
 1148              	USBD_LL_OpenEP:
 1149              	.LVL105:
 1150              	.LFB165:
 461:USB_DEVICE/Target/usbd_conf.c ****   HAL_StatusTypeDef hal_status = HAL_OK;
 1151              		.loc 1 461 1 is_stmt 1 view -0
 1152              		.cfi_startproc
 1153              		@ args = 0, pretend = 0, frame = 0
 1154              		@ frame_needed = 0, uses_anonymous_args = 0
 461:USB_DEVICE/Target/usbd_conf.c ****   HAL_StatusTypeDef hal_status = HAL_OK;
 1155              		.loc 1 461 1 is_stmt 0 view .LVU270
 1156 0000 08B5     		push	{r3, lr}
 1157              	.LCFI22:
 1158              		.cfi_def_cfa_offset 8
 1159              		.cfi_offset 3, -8
 1160              		.cfi_offset 14, -4
 1161 0002 9446     		mov	ip, r2
 1162 0004 1A46     		mov	r2, r3
 1163              	.LVL106:
 462:USB_DEVICE/Target/usbd_conf.c ****   USBD_StatusTypeDef usb_status = USBD_OK;
 1164              		.loc 1 462 3 is_stmt 1 view .LVU271
 463:USB_DEVICE/Target/usbd_conf.c **** 
 1165              		.loc 1 463 3 view .LVU272
 465:USB_DEVICE/Target/usbd_conf.c **** 
 1166              		.loc 1 465 3 view .LVU273
 465:USB_DEVICE/Target/usbd_conf.c **** 
 1167              		.loc 1 465 16 is_stmt 0 view .LVU274
 1168 0006 6346     		mov	r3, ip
 1169              	.LVL107:
 465:USB_DEVICE/Target/usbd_conf.c **** 
 1170              		.loc 1 465 16 view .LVU275
 1171 0008 D0F8C802 		ldr	r0, [r0, #712]
 1172              	.LVL108:
 465:USB_DEVICE/Target/usbd_conf.c **** 
 1173              		.loc 1 465 16 view .LVU276
 1174 000c FFF7FEFF 		bl	HAL_PCD_EP_Open
 1175              	.LVL109:
 467:USB_DEVICE/Target/usbd_conf.c **** 
 1176              		.loc 1 467 3 is_stmt 1 view .LVU277
 467:USB_DEVICE/Target/usbd_conf.c **** 
 1177              		.loc 1 467 17 is_stmt 0 view .LVU278
 1178 0010 FFF7FEFF 		bl	USBD_Get_USB_Status
 1179              	.LVL110:
 469:USB_DEVICE/Target/usbd_conf.c **** }
 1180              		.loc 1 469 3 is_stmt 1 view .LVU279
 470:USB_DEVICE/Target/usbd_conf.c **** 
 1181              		.loc 1 470 1 is_stmt 0 view .LVU280
 1182 0014 08BD     		pop	{r3, pc}
 1183              		.cfi_endproc
 1184              	.LFE165:
 1186              		.section	.text.USBD_LL_CloseEP,"ax",%progbits
 1187              		.align	1
 1188              		.global	USBD_LL_CloseEP
 1189              		.syntax unified
 1190              		.thumb
ARM GAS  /tmp/ccpuhKFW.s 			page 36


 1191              		.thumb_func
 1193              	USBD_LL_CloseEP:
 1194              	.LVL111:
 1195              	.LFB166:
 479:USB_DEVICE/Target/usbd_conf.c ****   HAL_StatusTypeDef hal_status = HAL_OK;
 1196              		.loc 1 479 1 is_stmt 1 view -0
 1197              		.cfi_startproc
 1198              		@ args = 0, pretend = 0, frame = 0
 1199              		@ frame_needed = 0, uses_anonymous_args = 0
 479:USB_DEVICE/Target/usbd_conf.c ****   HAL_StatusTypeDef hal_status = HAL_OK;
 1200              		.loc 1 479 1 is_stmt 0 view .LVU282
 1201 0000 08B5     		push	{r3, lr}
 1202              	.LCFI23:
 1203              		.cfi_def_cfa_offset 8
 1204              		.cfi_offset 3, -8
 1205              		.cfi_offset 14, -4
 480:USB_DEVICE/Target/usbd_conf.c ****   USBD_StatusTypeDef usb_status = USBD_OK;
 1206              		.loc 1 480 3 is_stmt 1 view .LVU283
 1207              	.LVL112:
 481:USB_DEVICE/Target/usbd_conf.c **** 
 1208              		.loc 1 481 3 view .LVU284
 483:USB_DEVICE/Target/usbd_conf.c **** 
 1209              		.loc 1 483 3 view .LVU285
 483:USB_DEVICE/Target/usbd_conf.c **** 
 1210              		.loc 1 483 16 is_stmt 0 view .LVU286
 1211 0002 D0F8C802 		ldr	r0, [r0, #712]
 1212              	.LVL113:
 483:USB_DEVICE/Target/usbd_conf.c **** 
 1213              		.loc 1 483 16 view .LVU287
 1214 0006 FFF7FEFF 		bl	HAL_PCD_EP_Close
 1215              	.LVL114:
 485:USB_DEVICE/Target/usbd_conf.c **** 
 1216              		.loc 1 485 3 is_stmt 1 view .LVU288
 485:USB_DEVICE/Target/usbd_conf.c **** 
 1217              		.loc 1 485 17 is_stmt 0 view .LVU289
 1218 000a FFF7FEFF 		bl	USBD_Get_USB_Status
 1219              	.LVL115:
 487:USB_DEVICE/Target/usbd_conf.c **** }
 1220              		.loc 1 487 3 is_stmt 1 view .LVU290
 488:USB_DEVICE/Target/usbd_conf.c **** 
 1221              		.loc 1 488 1 is_stmt 0 view .LVU291
 1222 000e 08BD     		pop	{r3, pc}
 1223              		.cfi_endproc
 1224              	.LFE166:
 1226              		.section	.text.USBD_LL_FlushEP,"ax",%progbits
 1227              		.align	1
 1228              		.global	USBD_LL_FlushEP
 1229              		.syntax unified
 1230              		.thumb
 1231              		.thumb_func
 1233              	USBD_LL_FlushEP:
 1234              	.LVL116:
 1235              	.LFB167:
 497:USB_DEVICE/Target/usbd_conf.c ****   HAL_StatusTypeDef hal_status = HAL_OK;
 1236              		.loc 1 497 1 is_stmt 1 view -0
 1237              		.cfi_startproc
 1238              		@ args = 0, pretend = 0, frame = 0
ARM GAS  /tmp/ccpuhKFW.s 			page 37


 1239              		@ frame_needed = 0, uses_anonymous_args = 0
 497:USB_DEVICE/Target/usbd_conf.c ****   HAL_StatusTypeDef hal_status = HAL_OK;
 1240              		.loc 1 497 1 is_stmt 0 view .LVU293
 1241 0000 08B5     		push	{r3, lr}
 1242              	.LCFI24:
 1243              		.cfi_def_cfa_offset 8
 1244              		.cfi_offset 3, -8
 1245              		.cfi_offset 14, -4
 498:USB_DEVICE/Target/usbd_conf.c ****   USBD_StatusTypeDef usb_status = USBD_OK;
 1246              		.loc 1 498 3 is_stmt 1 view .LVU294
 1247              	.LVL117:
 499:USB_DEVICE/Target/usbd_conf.c **** 
 1248              		.loc 1 499 3 view .LVU295
 501:USB_DEVICE/Target/usbd_conf.c **** 
 1249              		.loc 1 501 3 view .LVU296
 501:USB_DEVICE/Target/usbd_conf.c **** 
 1250              		.loc 1 501 16 is_stmt 0 view .LVU297
 1251 0002 D0F8C802 		ldr	r0, [r0, #712]
 1252              	.LVL118:
 501:USB_DEVICE/Target/usbd_conf.c **** 
 1253              		.loc 1 501 16 view .LVU298
 1254 0006 FFF7FEFF 		bl	HAL_PCD_EP_Flush
 1255              	.LVL119:
 503:USB_DEVICE/Target/usbd_conf.c **** 
 1256              		.loc 1 503 3 is_stmt 1 view .LVU299
 503:USB_DEVICE/Target/usbd_conf.c **** 
 1257              		.loc 1 503 17 is_stmt 0 view .LVU300
 1258 000a FFF7FEFF 		bl	USBD_Get_USB_Status
 1259              	.LVL120:
 505:USB_DEVICE/Target/usbd_conf.c **** }
 1260              		.loc 1 505 3 is_stmt 1 view .LVU301
 506:USB_DEVICE/Target/usbd_conf.c **** 
 1261              		.loc 1 506 1 is_stmt 0 view .LVU302
 1262 000e 08BD     		pop	{r3, pc}
 1263              		.cfi_endproc
 1264              	.LFE167:
 1266              		.section	.text.USBD_LL_StallEP,"ax",%progbits
 1267              		.align	1
 1268              		.global	USBD_LL_StallEP
 1269              		.syntax unified
 1270              		.thumb
 1271              		.thumb_func
 1273              	USBD_LL_StallEP:
 1274              	.LVL121:
 1275              	.LFB168:
 515:USB_DEVICE/Target/usbd_conf.c ****   HAL_StatusTypeDef hal_status = HAL_OK;
 1276              		.loc 1 515 1 is_stmt 1 view -0
 1277              		.cfi_startproc
 1278              		@ args = 0, pretend = 0, frame = 0
 1279              		@ frame_needed = 0, uses_anonymous_args = 0
 515:USB_DEVICE/Target/usbd_conf.c ****   HAL_StatusTypeDef hal_status = HAL_OK;
 1280              		.loc 1 515 1 is_stmt 0 view .LVU304
 1281 0000 08B5     		push	{r3, lr}
 1282              	.LCFI25:
 1283              		.cfi_def_cfa_offset 8
 1284              		.cfi_offset 3, -8
 1285              		.cfi_offset 14, -4
ARM GAS  /tmp/ccpuhKFW.s 			page 38


 516:USB_DEVICE/Target/usbd_conf.c ****   USBD_StatusTypeDef usb_status = USBD_OK;
 1286              		.loc 1 516 3 is_stmt 1 view .LVU305
 1287              	.LVL122:
 517:USB_DEVICE/Target/usbd_conf.c **** 
 1288              		.loc 1 517 3 view .LVU306
 519:USB_DEVICE/Target/usbd_conf.c **** 
 1289              		.loc 1 519 3 view .LVU307
 519:USB_DEVICE/Target/usbd_conf.c **** 
 1290              		.loc 1 519 16 is_stmt 0 view .LVU308
 1291 0002 D0F8C802 		ldr	r0, [r0, #712]
 1292              	.LVL123:
 519:USB_DEVICE/Target/usbd_conf.c **** 
 1293              		.loc 1 519 16 view .LVU309
 1294 0006 FFF7FEFF 		bl	HAL_PCD_EP_SetStall
 1295              	.LVL124:
 521:USB_DEVICE/Target/usbd_conf.c **** 
 1296              		.loc 1 521 3 is_stmt 1 view .LVU310
 521:USB_DEVICE/Target/usbd_conf.c **** 
 1297              		.loc 1 521 17 is_stmt 0 view .LVU311
 1298 000a FFF7FEFF 		bl	USBD_Get_USB_Status
 1299              	.LVL125:
 523:USB_DEVICE/Target/usbd_conf.c **** }
 1300              		.loc 1 523 3 is_stmt 1 view .LVU312
 524:USB_DEVICE/Target/usbd_conf.c **** 
 1301              		.loc 1 524 1 is_stmt 0 view .LVU313
 1302 000e 08BD     		pop	{r3, pc}
 1303              		.cfi_endproc
 1304              	.LFE168:
 1306              		.section	.text.USBD_LL_ClearStallEP,"ax",%progbits
 1307              		.align	1
 1308              		.global	USBD_LL_ClearStallEP
 1309              		.syntax unified
 1310              		.thumb
 1311              		.thumb_func
 1313              	USBD_LL_ClearStallEP:
 1314              	.LVL126:
 1315              	.LFB169:
 533:USB_DEVICE/Target/usbd_conf.c ****   HAL_StatusTypeDef hal_status = HAL_OK;
 1316              		.loc 1 533 1 is_stmt 1 view -0
 1317              		.cfi_startproc
 1318              		@ args = 0, pretend = 0, frame = 0
 1319              		@ frame_needed = 0, uses_anonymous_args = 0
 533:USB_DEVICE/Target/usbd_conf.c ****   HAL_StatusTypeDef hal_status = HAL_OK;
 1320              		.loc 1 533 1 is_stmt 0 view .LVU315
 1321 0000 08B5     		push	{r3, lr}
 1322              	.LCFI26:
 1323              		.cfi_def_cfa_offset 8
 1324              		.cfi_offset 3, -8
 1325              		.cfi_offset 14, -4
 534:USB_DEVICE/Target/usbd_conf.c ****   USBD_StatusTypeDef usb_status = USBD_OK;
 1326              		.loc 1 534 3 is_stmt 1 view .LVU316
 1327              	.LVL127:
 535:USB_DEVICE/Target/usbd_conf.c **** 
 1328              		.loc 1 535 3 view .LVU317
 537:USB_DEVICE/Target/usbd_conf.c **** 
 1329              		.loc 1 537 3 view .LVU318
 537:USB_DEVICE/Target/usbd_conf.c **** 
ARM GAS  /tmp/ccpuhKFW.s 			page 39


 1330              		.loc 1 537 16 is_stmt 0 view .LVU319
 1331 0002 D0F8C802 		ldr	r0, [r0, #712]
 1332              	.LVL128:
 537:USB_DEVICE/Target/usbd_conf.c **** 
 1333              		.loc 1 537 16 view .LVU320
 1334 0006 FFF7FEFF 		bl	HAL_PCD_EP_ClrStall
 1335              	.LVL129:
 539:USB_DEVICE/Target/usbd_conf.c **** 
 1336              		.loc 1 539 3 is_stmt 1 view .LVU321
 539:USB_DEVICE/Target/usbd_conf.c **** 
 1337              		.loc 1 539 17 is_stmt 0 view .LVU322
 1338 000a FFF7FEFF 		bl	USBD_Get_USB_Status
 1339              	.LVL130:
 541:USB_DEVICE/Target/usbd_conf.c **** }
 1340              		.loc 1 541 3 is_stmt 1 view .LVU323
 542:USB_DEVICE/Target/usbd_conf.c **** 
 1341              		.loc 1 542 1 is_stmt 0 view .LVU324
 1342 000e 08BD     		pop	{r3, pc}
 1343              		.cfi_endproc
 1344              	.LFE169:
 1346              		.section	.text.USBD_LL_SetUSBAddress,"ax",%progbits
 1347              		.align	1
 1348              		.global	USBD_LL_SetUSBAddress
 1349              		.syntax unified
 1350              		.thumb
 1351              		.thumb_func
 1353              	USBD_LL_SetUSBAddress:
 1354              	.LVL131:
 1355              	.LFB171:
 571:USB_DEVICE/Target/usbd_conf.c ****   HAL_StatusTypeDef hal_status = HAL_OK;
 1356              		.loc 1 571 1 is_stmt 1 view -0
 1357              		.cfi_startproc
 1358              		@ args = 0, pretend = 0, frame = 0
 1359              		@ frame_needed = 0, uses_anonymous_args = 0
 571:USB_DEVICE/Target/usbd_conf.c ****   HAL_StatusTypeDef hal_status = HAL_OK;
 1360              		.loc 1 571 1 is_stmt 0 view .LVU326
 1361 0000 08B5     		push	{r3, lr}
 1362              	.LCFI27:
 1363              		.cfi_def_cfa_offset 8
 1364              		.cfi_offset 3, -8
 1365              		.cfi_offset 14, -4
 572:USB_DEVICE/Target/usbd_conf.c ****   USBD_StatusTypeDef usb_status = USBD_OK;
 1366              		.loc 1 572 3 is_stmt 1 view .LVU327
 1367              	.LVL132:
 573:USB_DEVICE/Target/usbd_conf.c **** 
 1368              		.loc 1 573 3 view .LVU328
 575:USB_DEVICE/Target/usbd_conf.c **** 
 1369              		.loc 1 575 3 view .LVU329
 575:USB_DEVICE/Target/usbd_conf.c **** 
 1370              		.loc 1 575 16 is_stmt 0 view .LVU330
 1371 0002 D0F8C802 		ldr	r0, [r0, #712]
 1372              	.LVL133:
 575:USB_DEVICE/Target/usbd_conf.c **** 
 1373              		.loc 1 575 16 view .LVU331
 1374 0006 FFF7FEFF 		bl	HAL_PCD_SetAddress
 1375              	.LVL134:
 577:USB_DEVICE/Target/usbd_conf.c **** 
ARM GAS  /tmp/ccpuhKFW.s 			page 40


 1376              		.loc 1 577 3 is_stmt 1 view .LVU332
 577:USB_DEVICE/Target/usbd_conf.c **** 
 1377              		.loc 1 577 17 is_stmt 0 view .LVU333
 1378 000a FFF7FEFF 		bl	USBD_Get_USB_Status
 1379              	.LVL135:
 579:USB_DEVICE/Target/usbd_conf.c **** }
 1380              		.loc 1 579 3 is_stmt 1 view .LVU334
 580:USB_DEVICE/Target/usbd_conf.c **** 
 1381              		.loc 1 580 1 is_stmt 0 view .LVU335
 1382 000e 08BD     		pop	{r3, pc}
 1383              		.cfi_endproc
 1384              	.LFE171:
 1386              		.section	.text.USBD_LL_Transmit,"ax",%progbits
 1387              		.align	1
 1388              		.global	USBD_LL_Transmit
 1389              		.syntax unified
 1390              		.thumb
 1391              		.thumb_func
 1393              	USBD_LL_Transmit:
 1394              	.LVL136:
 1395              	.LFB172:
 591:USB_DEVICE/Target/usbd_conf.c ****   HAL_StatusTypeDef hal_status = HAL_OK;
 1396              		.loc 1 591 1 is_stmt 1 view -0
 1397              		.cfi_startproc
 1398              		@ args = 0, pretend = 0, frame = 0
 1399              		@ frame_needed = 0, uses_anonymous_args = 0
 591:USB_DEVICE/Target/usbd_conf.c ****   HAL_StatusTypeDef hal_status = HAL_OK;
 1400              		.loc 1 591 1 is_stmt 0 view .LVU337
 1401 0000 08B5     		push	{r3, lr}
 1402              	.LCFI28:
 1403              		.cfi_def_cfa_offset 8
 1404              		.cfi_offset 3, -8
 1405              		.cfi_offset 14, -4
 592:USB_DEVICE/Target/usbd_conf.c ****   USBD_StatusTypeDef usb_status = USBD_OK;
 1406              		.loc 1 592 3 is_stmt 1 view .LVU338
 1407              	.LVL137:
 593:USB_DEVICE/Target/usbd_conf.c **** 
 1408              		.loc 1 593 3 view .LVU339
 595:USB_DEVICE/Target/usbd_conf.c **** 
 1409              		.loc 1 595 3 view .LVU340
 595:USB_DEVICE/Target/usbd_conf.c **** 
 1410              		.loc 1 595 16 is_stmt 0 view .LVU341
 1411 0002 D0F8C802 		ldr	r0, [r0, #712]
 1412              	.LVL138:
 595:USB_DEVICE/Target/usbd_conf.c **** 
 1413              		.loc 1 595 16 view .LVU342
 1414 0006 FFF7FEFF 		bl	HAL_PCD_EP_Transmit
 1415              	.LVL139:
 597:USB_DEVICE/Target/usbd_conf.c **** 
 1416              		.loc 1 597 3 is_stmt 1 view .LVU343
 597:USB_DEVICE/Target/usbd_conf.c **** 
 1417              		.loc 1 597 17 is_stmt 0 view .LVU344
 1418 000a FFF7FEFF 		bl	USBD_Get_USB_Status
 1419              	.LVL140:
 599:USB_DEVICE/Target/usbd_conf.c **** }
 1420              		.loc 1 599 3 is_stmt 1 view .LVU345
 600:USB_DEVICE/Target/usbd_conf.c **** 
ARM GAS  /tmp/ccpuhKFW.s 			page 41


 1421              		.loc 1 600 1 is_stmt 0 view .LVU346
 1422 000e 08BD     		pop	{r3, pc}
 1423              		.cfi_endproc
 1424              	.LFE172:
 1426              		.section	.text.USBD_LL_PrepareReceive,"ax",%progbits
 1427              		.align	1
 1428              		.global	USBD_LL_PrepareReceive
 1429              		.syntax unified
 1430              		.thumb
 1431              		.thumb_func
 1433              	USBD_LL_PrepareReceive:
 1434              	.LVL141:
 1435              	.LFB173:
 611:USB_DEVICE/Target/usbd_conf.c ****   HAL_StatusTypeDef hal_status = HAL_OK;
 1436              		.loc 1 611 1 is_stmt 1 view -0
 1437              		.cfi_startproc
 1438              		@ args = 0, pretend = 0, frame = 0
 1439              		@ frame_needed = 0, uses_anonymous_args = 0
 611:USB_DEVICE/Target/usbd_conf.c ****   HAL_StatusTypeDef hal_status = HAL_OK;
 1440              		.loc 1 611 1 is_stmt 0 view .LVU348
 1441 0000 08B5     		push	{r3, lr}
 1442              	.LCFI29:
 1443              		.cfi_def_cfa_offset 8
 1444              		.cfi_offset 3, -8
 1445              		.cfi_offset 14, -4
 612:USB_DEVICE/Target/usbd_conf.c ****   USBD_StatusTypeDef usb_status = USBD_OK;
 1446              		.loc 1 612 3 is_stmt 1 view .LVU349
 1447              	.LVL142:
 613:USB_DEVICE/Target/usbd_conf.c **** 
 1448              		.loc 1 613 3 view .LVU350
 615:USB_DEVICE/Target/usbd_conf.c **** 
 1449              		.loc 1 615 3 view .LVU351
 615:USB_DEVICE/Target/usbd_conf.c **** 
 1450              		.loc 1 615 16 is_stmt 0 view .LVU352
 1451 0002 D0F8C802 		ldr	r0, [r0, #712]
 1452              	.LVL143:
 615:USB_DEVICE/Target/usbd_conf.c **** 
 1453              		.loc 1 615 16 view .LVU353
 1454 0006 FFF7FEFF 		bl	HAL_PCD_EP_Receive
 1455              	.LVL144:
 617:USB_DEVICE/Target/usbd_conf.c **** 
 1456              		.loc 1 617 3 is_stmt 1 view .LVU354
 617:USB_DEVICE/Target/usbd_conf.c **** 
 1457              		.loc 1 617 17 is_stmt 0 view .LVU355
 1458 000a FFF7FEFF 		bl	USBD_Get_USB_Status
 1459              	.LVL145:
 619:USB_DEVICE/Target/usbd_conf.c **** }
 1460              		.loc 1 619 3 is_stmt 1 view .LVU356
 620:USB_DEVICE/Target/usbd_conf.c **** 
 1461              		.loc 1 620 1 is_stmt 0 view .LVU357
 1462 000e 08BD     		pop	{r3, pc}
 1463              		.cfi_endproc
 1464              	.LFE173:
 1466              		.section	.bss.mem.0,"aw",%nobits
 1467              		.align	2
 1470              	mem.0:
 1471 0000 00000000 		.space	544
ARM GAS  /tmp/ccpuhKFW.s 			page 42


 1471      00000000 
 1471      00000000 
 1471      00000000 
 1471      00000000 
 1472              		.global	hpcd_USB_OTG_HS
 1473              		.section	.bss.hpcd_USB_OTG_HS,"aw",%nobits
 1474              		.align	2
 1477              	hpcd_USB_OTG_HS:
 1478 0000 00000000 		.space	1292
 1478      00000000 
 1478      00000000 
 1478      00000000 
 1478      00000000 
 1479              		.text
 1480              	.Letext0:
 1481              		.file 2 "Drivers/CMSIS/Device/ST/STM32H7xx/Include/stm32h7a3xxq.h"
 1482              		.file 3 "/home/jack/ece331/Downloads/arm-gnu-toolchain-12.2.rel1-aarch64-arm-none-eabi/arm-none-ea
 1483              		.file 4 "/home/jack/ece331/Downloads/arm-gnu-toolchain-12.2.rel1-aarch64-arm-none-eabi/arm-none-ea
 1484              		.file 5 "Drivers/CMSIS/Include/core_cm7.h"
 1485              		.file 6 "Drivers/CMSIS/Device/ST/STM32H7xx/Include/stm32h7xx.h"
 1486              		.file 7 "Drivers/STM32H7xx_HAL_Driver/Inc/stm32h7xx_hal_def.h"
 1487              		.file 8 "Drivers/STM32H7xx_HAL_Driver/Inc/stm32h7xx_hal_rcc_ex.h"
 1488              		.file 9 "Drivers/STM32H7xx_HAL_Driver/Inc/stm32h7xx_hal_gpio.h"
 1489              		.file 10 "Drivers/STM32H7xx_HAL_Driver/Inc/stm32h7xx_ll_usb.h"
 1490              		.file 11 "Drivers/STM32H7xx_HAL_Driver/Inc/stm32h7xx_hal_pcd.h"
 1491              		.file 12 "Middlewares/ST/STM32_USB_Device_Library/Core/Inc/usbd_def.h"
 1492              		.file 13 "Drivers/STM32H7xx_HAL_Driver/Inc/stm32h7xx_hal_pcd_ex.h"
 1493              		.file 14 "Middlewares/ST/STM32_USB_Device_Library/Core/Inc/usbd_core.h"
 1494              		.file 15 "Drivers/STM32H7xx_HAL_Driver/Inc/stm32h7xx_hal.h"
 1495              		.file 16 "Drivers/STM32H7xx_HAL_Driver/Inc/stm32h7xx_hal_cortex.h"
 1496              		.file 17 "Drivers/STM32H7xx_HAL_Driver/Inc/stm32h7xx_hal_pwr_ex.h"
 1497              		.file 18 "<built-in>"
ARM GAS  /tmp/ccpuhKFW.s 			page 43

